(ccopy_reg
_reconstructor
p0
(corigami_utils
vhelix_vbase_to_nucleotide
p1
c__builtin__
object
p2
Ntp3
Rp4
(dp5
S'strand_count'
p6
I0
sS'nuc_count'
p7
I0
sS'_stap'
p8
(dp9
(I0
I86
tp10
(I4
(lp11
I950
atp12
s(I3
I35
tp13
(I10
(lp14
I1192
atp15
s(I7
I3
tp16
(I13
(lp17
I1354
atp18
s(I6
I28
tp19
(I13
(lp20
I1386
atp21
s(I4
I36
tp22
(I10
(lp23
I1194
atp24
s(I2
I84
tp25
(I9
(lp26
I1130
atp27
s(I0
I76
tp28
(I3
(lp29
I891
atp30
s(I5
I57
tp31
(I2
(lp32
I855
atp33
s(I6
I54
tp34
(I13
(lp35
I1412
atp36
s(I4
I66
tp37
(I12
(lp38
I1266
atp39
s(I1
I64
tp40
(I3
(lp41
I904
atp42
s(I2
I78
tp43
(I9
(lp44
I1124
atp45
s(I8
I5
tp46
(I14
(lp47
I1483
atp48
s(I0
I98
tp49
(I5
(lp50
I997
atp51
s(I9
I0
tp52
(I14
(lp53
I1477
atp54
s(I5
I74
tp55
(I12
(lp56
I1251
atp57
s(I3
I86
tp58
(I9
(lp59
I1141
atp60
s(I4
I104
tp61
(I5
(lp62
I975
atp63
s(I2
I104
tp64
(I6
(lp65
I1031
atp66
s(I0
I89
tp67
(I4
(lp68
I953
atp69
s(I5
I84
tp70
(I4
(lp71
I961
atp72
s(I4
I118
tp73
(I11
(lp74
I1234
atp75
s(I0
I55
tp76
(I2
(lp77
I870
atp78
s(I1
I54
tp79
(I3
(lp80
I914
atp81
s(I2
I53
tp82
(I8
(lp83
I1099
atp84
s(I0
I45
tp85
(I1
(lp86
I818
atp87
s(I3
I40
tp88
(I10
(lp89
I1187
atp90
s(I1
I40
tp91
(I1
(lp92
I802
atp93
s(I6
I23
tp94
(I13
(lp95
I1381
atp96
s(I4
I35
tp97
(I10
(lp98
I1193
atp99
s(I2
I47
tp100
(I10
(lp101
I1177
atp102
s(I8
I38
tp103
(I14
(lp104
I1516
atp105
s(I0
I67
tp106
(I3
(lp107
I882
atp108
s(I7
I25
tp109
(I13
(lp110
I1332
atp111
s(I9
I39
tp112
(I14
(lp113
I1438
atp114
s(I6
I41
tp115
(I13
(lp116
I1399
atp117
s(I4
I73
tp118
(I12
(lp119
I1273
atp120
s(I1
I89
tp121
(I4
(lp122
I928
atp123
s(I2
I73
tp124
(I8
(lp125
I1119
atp126
s(I8
I12
tp127
(I14
(lp128
I1490
atp129
s(I7
I44
tp130
(I13
(lp131
I1313
atp132
s(I9
I9
tp133
(I14
(lp134
I1468
atp135
s(I3
I95
tp136
(I6
(lp137
I1013
atp138
s(I4
I87
tp139
(I12
(lp140
I1287
atp141
s(I1
I115
tp142
(I7
(lp143
I1056
atp144
s(I2
I99
tp145
(I6
(lp146
I1026
atp147
s(I8
I18
tp148
(I14
(lp149
I1496
atp150
s(I9
I19
tp151
(I14
(lp152
I1458
atp153
s(I5
I93
tp154
(I5
(lp155
I987
atp156
s(I3
I101
tp157
(I6
(lp158
I1007
atp159
s(I5
I103
tp160
(I5
(lp161
I977
atp162
s(I0
I36
tp163
(I1
(lp164
I809
atp165
s(I6
I14
tp166
(I13
(lp167
I1372
atp168
s(I4
I42
tp169
(I10
(lp170
I1200
atp171
s(I2
I38
tp172
(I10
(lp173
I1168
atp174
s(I8
I45
tp175
(I14
(lp176
I1523
atp177
s(I0
I90
tp178
(I4
(lp179
I954
atp180
s(I5
I43
tp181
(I1
(lp182
I827
atp183
s(I3
I55
tp184
(I8
(lp185
I1088
atp186
s(I9
I40
tp187
(I14
(lp188
I1437
atp189
s(I0
I84
tp190
(I4
(lp191
I948
atp192
s(I6
I32
tp193
(I13
(lp194
I1390
atp195
s(I7
I55
tp196
(I13
(lp197
I1302
atp198
s(I1
I82
tp199
(I4
(lp200
I935
atp201
s(I2
I64
tp202
(I8
(lp203
I1110
atp204
s(I8
I51
tp205
(I14
(lp206
I1529
atp207
s(I0
I112
tp208
(I7
(lp209
I1046
atp210
s(I5
I53
tp211
(I2
(lp212
I859
atp213
s(I9
I50
tp214
(I14
(lp215
I1427
atp216
s(I6
I58
tp217
(I13
(lp218
I1416
atp219
s(I3
I68
tp220
(I9
(lp221
I1159
atp222
s(I4
I94
tp223
(I12
(lp224
I1294
atp225
s(I1
I116
tp226
(I7
(lp227
I1055
atp228
s(I8
I25
tp229
(I14
(lp230
I1503
atp231
s(I9
I20
tp232
(I14
(lp233
I1457
atp234
s(I5
I70
tp235
(I12
(lp236
I1255
atp237
s(I3
I106
tp238
(I11
(lp239
I1247
atp240
s(I4
I100
tp241
(I5
(lp242
I971
atp243
s(I1
I110
tp244
(I7
(lp245
I1061
atp246
s(I0
I71
tp247
(I3
(lp248
I886
atp249
s(I5
I96
tp250
(I5
(lp251
I984
atp252
s(I3
I112
tp253
(I11
(lp254
I1241
atp255
s(I0
I59
tp256
(I2
(lp257
I874
atp258
s(I1
I58
tp259
(I3
(lp260
I910
atp261
s(I6
I1
tp262
(I13
(lp263
I1359
atp264
s(I0
I81
tp265
(I4
(lp266
I945
atp267
s(I3
I60
tp268
(I8
(lp269
I1083
atp270
s(I6
I27
tp271
(I13
(lp272
I1385
atp273
s(I4
I63
tp274
(I12
(lp275
I1263
atp276
s(I2
I91
tp277
(I6
(lp278
I1018
atp279
s(I8
I58
tp280
(I14
(lp281
I1536
atp282
s(I7
I34
tp283
(I13
(lp284
I1323
atp285
s(I0
I74
tp286
(I3
(lp287
I889
atp288
s(I5
I62
tp289
(I2
(lp290
I850
atp291
s(I9
I59
tp292
(I14
(lp293
I1418
atp294
s(I3
I77
tp295
(I9
(lp296
I1150
atp297
s(I4
I69
tp298
(I12
(lp299
I1269
atp300
s(I1
I77
tp301
(I4
(lp302
I940
atp303
s(I2
I117
tp304
(I7
(lp305
I1079
atp306
s(I8
I0
tp307
(I14
(lp308
I1478
atp309
s(I0
I109
tp310
(I7
(lp311
I1043
atp312
s(I9
I51
tp313
(I14
(lp314
I1426
atp315
s(I9
I29
tp316
(I14
(lp317
I1448
atp318
s(I5
I79
tp319
(I4
(lp320
I966
atp321
s(I3
I83
tp322
(I9
(lp323
I1144
atp324
s(I4
I99
tp325
(I5
(lp326
I970
atp327
s(I1
I103
tp328
(I6
(lp329
I1033
atp330
s(I2
I111
tp331
(I7
(lp332
I1073
atp333
s(I5
I105
tp334
(I11
(lp335
I1220
atp336
s(I0
I50
tp337
(I2
(lp338
I865
atp339
s(I5
I115
tp340
(I11
(lp341
I1210
atp342
s(I1
I51
tp343
(I3
(lp344
I917
atp345
s(I2
I56
tp346
(I8
(lp347
I1102
atp348
s(I0
I40
tp349
(I1
(lp350
I813
atp351
s(I3
I37
tp352
(I10
(lp353
I1190
atp354
s(I6
I18
tp355
(I13
(lp356
I1376
atp357
s(I4
I38
tp358
(I10
(lp359
I1196
atp360
s(I2
I82
tp361
(I9
(lp362
I1128
atp363
s(I8
I33
tp364
(I14
(lp365
I1511
atp366
s(I0
I78
tp367
(I4
(lp368
I942
atp369
s(I5
I39
tp370
(I1
(lp371
I831
atp372
s(I0
I82
tp373
(I4
(lp374
I946
atp375
s(I6
I52
tp376
(I13
(lp377
I1410
atp378
s(I4
I76
tp379
(I12
(lp380
I1276
atp381
s(I1
I70
tp382
(I3
(lp383
I898
atp384
s(I2
I76
tp385
(I8
(lp386
I1122
atp387
s(I8
I7
tp388
(I14
(lp389
I1485
atp390
s(I0
I100
tp391
(I5
(lp392
I999
atp393
s(I9
I6
tp394
(I14
(lp395
I1471
atp396
s(I5
I72
tp397
(I12
(lp398
I1253
atp399
s(I3
I88
tp400
(I9
(lp401
I1139
atp402
s(I4
I106
tp403
(I11
(lp404
I1222
atp405
s(I2
I102
tp406
(I6
(lp407
I1029
atp408
s(I5
I82
tp409
(I4
(lp410
I963
atp411
s(I4
I112
tp412
(I11
(lp413
I1228
atp414
s(I7
I16
tp415
(I13
(lp416
I1341
atp417
s(I1
I52
tp418
(I3
(lp419
I916
atp420
s(I2
I51
tp421
(I8
(lp422
I1097
atp423
s(I0
I47
tp424
(I1
(lp425
I820
atp426
s(I3
I42
tp427
(I10
(lp428
I1185
atp429
s(I1
I46
tp430
(I1
(lp431
I796
atp432
s(I6
I21
tp433
(I13
(lp434
I1379
atp435
s(I4
I45
tp436
(I10
(lp437
I1203
atp438
s(I2
I45
tp439
(I10
(lp440
I1175
atp441
s(I8
I40
tp442
(I14
(lp443
I1518
atp444
s(I0
I69
tp445
(I3
(lp446
I884
atp447
s(I3
I48
tp448
(I10
(lp449
I1179
atp450
s(I9
I37
tp451
(I14
(lp452
I1440
atp453
s(I6
I47
tp454
(I13
(lp455
I1405
atp456
s(I4
I75
tp457
(I12
(lp458
I1275
atp459
s(I1
I95
tp460
(I4
(lp461
I922
atp462
s(I2
I71
tp463
(I8
(lp464
I1117
atp465
s(I8
I14
tp466
(I14
(lp467
I1492
atp468
s(I7
I46
tp469
(I13
(lp470
I1311
atp471
s(I0
I72
tp472
(I3
(lp473
I887
atp474
s(I9
I15
tp475
(I14
(lp476
I1462
atp477
s(I3
I65
tp478
(I9
(lp479
I1162
atp480
s(I4
I81
tp481
(I12
(lp482
I1281
atp483
s(I1
I113
tp484
(I7
(lp485
I1058
atp486
s(I2
I97
tp487
(I6
(lp488
I1024
atp489
s(I8
I20
tp490
(I14
(lp491
I1498
atp492
s(I9
I17
tp493
(I14
(lp494
I1460
atp495
s(I5
I91
tp496
(I5
(lp497
I989
atp498
s(I3
I103
tp499
(I6
(lp500
I1005
atp501
s(I1
I107
tp502
(I7
(lp503
I1064
atp504
s(I7
I49
tp505
(I13
(lp506
I1308
atp507
s(I5
I101
tp508
(I5
(lp509
I979
atp510
s(I0
I38
tp511
(I1
(lp512
I811
atp513
s(I1
I39
tp514
(I1
(lp515
I803
atp516
s(I6
I12
tp517
(I13
(lp518
I1370
atp519
s(I2
I36
tp520
(I10
(lp521
I1166
atp522
s(I8
I47
tp523
(I14
(lp524
I1525
atp525
s(I7
I9
tp526
(I13
(lp527
I1348
atp528
s(I5
I41
tp529
(I1
(lp530
I829
atp531
s(I3
I57
tp532
(I8
(lp533
I1086
atp534
s(I9
I46
tp535
(I14
(lp536
I1431
atp537
s(I6
I38
tp538
(I13
(lp539
I1396
atp540
s(I4
I50
tp541
(I2
(lp542
I837
atp543
s(I1
I80
tp544
(I4
(lp545
I937
atp546
s(I2
I94
tp547
(I6
(lp548
I1021
atp549
s(I8
I53
tp550
(I14
(lp551
I1531
atp552
s(I7
I39
tp553
(I13
(lp554
I1318
atp555
s(I5
I51
tp556
(I2
(lp557
I861
atp558
s(I9
I48
tp559
(I14
(lp560
I1429
atp561
s(I0
I80
tp562
(I4
(lp563
I944
atp564
s(I6
I56
tp565
(I13
(lp566
I1414
atp567
s(I3
I70
tp568
(I9
(lp569
I1157
atp570
s(I4
I88
tp571
(I12
(lp572
I1288
atp573
s(I1
I74
tp574
(I3
(lp575
I894
atp576
s(I8
I27
tp577
(I14
(lp578
I1505
atp579
s(I0
I104
tp580
(I5
(lp581
I1003
atp582
s(I9
I26
tp583
(I14
(lp584
I1451
atp585
s(I5
I68
tp586
(I12
(lp587
I1257
atp588
s(I3
I108
tp589
(I11
(lp590
I1245
atp591
s(I4
I102
tp592
(I5
(lp593
I973
atp594
s(I1
I108
tp595
(I7
(lp596
I1063
atp597
s(I5
I110
tp598
(I11
(lp599
I1215
atp600
s(I3
I114
tp601
(I11
(lp602
I1239
atp603
s(I0
I61
tp604
(I2
(lp605
I876
atp606
s(I7
I22
tp607
(I13
(lp608
I1335
atp609
s(I1
I56
tp610
(I3
(lp611
I912
atp612
s(I6
I7
tp613
(I13
(lp614
I1365
atp615
s(I2
I63
tp616
(I8
(lp617
I1109
atp618
s(I0
I83
tp619
(I4
(lp620
I947
atp621
s(I3
I62
tp622
(I8
(lp623
I1081
atp624
s(I6
I25
tp625
(I13
(lp626
I1383
atp627
s(I4
I57
tp628
(I2
(lp629
I844
atp630
s(I2
I89
tp631
(I9
(lp632
I1135
atp633
s(I0
I73
tp634
(I3
(lp635
I888
atp636
s(I5
I60
tp637
(I2
(lp638
I852
atp639
s(I9
I57
tp640
(I14
(lp641
I1420
atp642
s(I6
I51
tp643
(I13
(lp644
I1409
atp645
s(I3
I79
tp646
(I9
(lp647
I1148
atp648
s(I4
I71
tp649
(I12
(lp650
I1271
atp651
s(I1
I67
tp652
(I3
(lp653
I901
atp654
s(I2
I115
tp655
(I7
(lp656
I1077
atp657
s(I8
I2
tp658
(I14
(lp659
I1480
atp660
s(I0
I111
tp661
(I7
(lp662
I1045
atp663
s(I0
I118
tp664
(I7
(lp665
I1052
atp666
s(I9
I3
tp667
(I14
(lp668
I1474
atp669
s(I5
I77
tp670
(I4
(lp671
I968
atp672
s(I3
I85
tp673
(I9
(lp674
I1142
atp675
s(I4
I109
tp676
(I11
(lp677
I1225
atp678
s(I1
I101
tp679
(I6
(lp680
I1035
atp681
s(I2
I109
tp682
(I7
(lp683
I1071
atp684
s(I5
I87
tp685
(I4
(lp686
I958
atp687
s(I0
I52
tp688
(I2
(lp689
I867
atp690
s(I5
I113
tp691
(I11
(lp692
I1212
atp693
s(I1
I49
tp694
(I3
(lp695
I919
atp696
s(I2
I54
tp697
(I8
(lp698
I1100
atp699
s(I0
I42
tp700
(I1
(lp701
I815
atp702
s(I3
I39
tp703
(I10
(lp704
I1188
atp705
s(I1
I43
tp706
(I1
(lp707
I799
atp708
s(I6
I16
tp709
(I13
(lp710
I1374
atp711
s(I2
I80
tp712
(I9
(lp713
I1126
atp714
s(I8
I35
tp715
(I14
(lp716
I1513
atp717
s(I0
I64
tp718
(I3
(lp719
I879
atp720
s(I5
I37
tp721
(I1
(lp722
I833
atp723
s(I9
I34
tp724
(I14
(lp725
I1443
atp726
s(I6
I42
tp727
(I13
(lp728
I1400
atp729
s(I4
I78
tp730
(I12
(lp731
I1278
atp732
s(I1
I68
tp733
(I3
(lp734
I900
atp735
s(I2
I74
tp736
(I8
(lp737
I1120
atp738
s(I8
I9
tp739
(I14
(lp740
I1487
atp741
s(I0
I102
tp742
(I5
(lp743
I1001
atp744
s(I9
I4
tp745
(I14
(lp746
I1473
atp747
s(I7
I11
tp748
(I13
(lp749
I1346
atp750
s(I3
I90
tp751
(I9
(lp752
I1137
atp753
s(I4
I84
tp754
(I12
(lp755
I1284
atp756
s(I2
I100
tp757
(I6
(lp758
I1027
atp759
s(I5
I80
tp760
(I4
(lp761
I965
atp762
s(I3
I96
tp763
(I6
(lp764
I1012
atp765
s(I4
I114
tp766
(I11
(lp767
I1230
atp768
s(I2
I49
tp769
(I8
(lp770
I1095
atp771
s(I0
I65
tp772
(I3
(lp773
I880
atp774
s(I3
I44
tp775
(I10
(lp776
I1183
atp777
s(I1
I44
tp778
(I1
(lp779
I798
atp780
s(I6
I11
tp781
(I13
(lp782
I1369
atp783
s(I4
I47
tp784
(I10
(lp785
I1205
atp786
s(I2
I43
tp787
(I10
(lp788
I1173
atp789
s(I8
I42
tp790
(I14
(lp791
I1520
atp792
s(I7
I18
tp793
(I13
(lp794
I1339
atp795
s(I5
I46
tp796
(I1
(lp797
I824
atp798
s(I3
I50
tp799
(I8
(lp800
I1093
atp801
s(I9
I43
tp802
(I14
(lp803
I1434
atp804
s(I6
I45
tp805
(I13
(lp806
I1403
atp807
s(I4
I53
tp808
(I2
(lp809
I840
atp810
s(I1
I93
tp811
(I4
(lp812
I924
atp813
s(I2
I69
tp814
(I8
(lp815
I1115
atp816
s(I8
I48
tp817
(I14
(lp818
I1526
atp819
s(I7
I40
tp820
(I13
(lp821
I1317
atp822
s(I9
I13
tp823
(I14
(lp824
I1464
atp825
s(I3
I67
tp826
(I9
(lp827
I1160
atp828
s(I4
I83
tp829
(I12
(lp830
I1283
atp831
s(I8
I22
tp832
(I14
(lp833
I1500
atp834
s(I7
I33
tp835
(I13
(lp836
I1324
atp837
s(I9
I23
tp838
(I14
(lp839
I1454
atp840
s(I5
I89
tp841
(I4
(lp842
I956
atp843
s(I3
I105
tp844
(I11
(lp845
I1248
atp846
s(I1
I105
tp847
(I7
(lp848
I1066
atp849
s(I4
I40
tp850
(I10
(lp851
I1198
atp852
s(I5
I99
tp853
(I5
(lp854
I981
atp855
s(I0
I56
tp856
(I2
(lp857
I871
atp858
s(I1
I37
tp859
(I1
(lp860
I805
atp861
s(I6
I2
tp862
(I13
(lp863
I1360
atp864
s(I0
I103
tp865
(I5
(lp866
I1002
atp867
s(I0
I94
tp868
(I5
(lp869
I993
atp870
s(I3
I59
tp871
(I8
(lp872
I1084
atp873
s(I9
I44
tp874
(I14
(lp875
I1433
atp876
s(I6
I36
tp877
(I13
(lp878
I1394
atp879
s(I4
I60
tp880
(I2
(lp881
I847
atp882
s(I1
I86
tp883
(I4
(lp884
I931
atp885
s(I2
I92
tp886
(I6
(lp887
I1019
atp888
s(I8
I55
tp889
(I14
(lp890
I1533
atp891
s(I0
I116
tp892
(I7
(lp893
I1050
atp894
s(I5
I49
tp895
(I2
(lp896
I863
atp897
s(I9
I54
tp898
(I14
(lp899
I1423
atp900
s(I3
I72
tp901
(I9
(lp902
I1155
atp903
s(I4
I90
tp904
(I12
(lp905
I1290
atp906
s(I1
I72
tp907
(I3
(lp908
I896
atp909
s(I2
I118
tp910
(I7
(lp911
I1080
atp912
s(I8
I29
tp913
(I14
(lp914
I1507
atp915
s(I0
I106
tp916
(I7
(lp917
I1040
atp918
s(I9
I24
tp919
(I14
(lp920
I1453
atp921
s(I0
I92
tp922
(I5
(lp923
I991
atp924
s(I5
I66
tp925
(I12
(lp926
I1259
atp927
s(I3
I110
tp928
(I11
(lp929
I1243
atp930
s(I4
I96
tp931
(I12
(lp932
I1296
atp933
s(I1
I98
tp934
(I6
(lp935
I1038
atp936
s(I5
I108
tp937
(I11
(lp938
I1217
atp939
s(I3
I116
tp940
(I11
(lp941
I1237
atp942
s(I0
I63
tp943
(I3
(lp944
I878
atp945
s(I5
I118
tp946
(I11
(lp947
I1207
atp948
s(I1
I62
tp949
(I3
(lp950
I906
atp951
s(I6
I5
tp952
(I13
(lp953
I1363
atp954
s(I2
I61
tp955
(I8
(lp956
I1107
atp957
s(I0
I85
tp958
(I4
(lp959
I949
atp960
s(I0
I79
tp961
(I4
(lp962
I943
atp963
s(I6
I31
tp964
(I13
(lp965
I1389
atp966
s(I4
I59
tp967
(I2
(lp968
I846
atp969
s(I2
I87
tp970
(I9
(lp971
I1133
atp972
s(I0
I75
tp973
(I3
(lp974
I890
atp975
s(I5
I58
tp976
(I2
(lp977
I854
atp978
s(I6
I49
tp979
(I13
(lp980
I1407
atp981
s(I4
I65
tp982
(I12
(lp983
I1265
atp984
s(I1
I65
tp985
(I3
(lp986
I903
atp987
s(I2
I113
tp988
(I7
(lp989
I1075
atp990
s(I8
I4
tp991
(I14
(lp992
I1482
atp993
s(I0
I97
tp994
(I5
(lp995
I996
atp996
s(I9
I1
tp997
(I14
(lp998
I1476
atp999
s(I5
I75
tp1000
(I12
(lp1001
I1250
atp1002
s(I3
I87
tp1003
(I9
(lp1004
I1140
atp1005
s(I4
I111
tp1006
(I11
(lp1007
I1227
atp1008
s(I2
I107
tp1009
(I7
(lp1010
I1069
atp1011
s(I0
I114
tp1012
(I7
(lp1013
I1048
atp1014
s(I5
I85
tp1015
(I4
(lp1016
I960
atp1017
s(I4
I117
tp1018
(I11
(lp1019
I1233
atp1020
s(I0
I54
tp1021
(I2
(lp1022
I869
atp1023
s(I1
I55
tp1024
(I3
(lp1025
I913
atp1026
s(I2
I52
tp1027
(I8
(lp1028
I1098
atp1029
s(I0
I44
tp1030
(I1
(lp1031
I817
atp1032
s(I3
I41
tp1033
(I10
(lp1034
I1186
atp1035
s(I1
I41
tp1036
(I1
(lp1037
I801
atp1038
s(I6
I22
tp1039
(I13
(lp1040
I1380
atp1041
s(I0
I101
tp1042
(I5
(lp1043
I1000
atp1044
s(I2
I46
tp1045
(I10
(lp1046
I1176
atp1047
s(I8
I37
tp1048
(I14
(lp1049
I1515
atp1050
s(I0
I66
tp1051
(I3
(lp1052
I881
atp1053
s(I5
I35
tp1054
(I1
(lp1055
I835
atp1056
s(I9
I32
tp1057
(I14
(lp1058
I1445
atp1059
s(I6
I40
tp1060
(I13
(lp1061
I1398
atp1062
s(I4
I72
tp1063
(I12
(lp1064
I1272
atp1065
s(I1
I90
tp1066
(I4
(lp1067
I927
atp1068
s(I2
I72
tp1069
(I8
(lp1070
I1118
atp1071
s(I8
I11
tp1072
(I14
(lp1073
I1489
atp1074
s(I7
I45
tp1075
(I13
(lp1076
I1312
atp1077
s(I9
I10
tp1078
(I14
(lp1079
I1467
atp1080
s(I3
I92
tp1081
(I6
(lp1082
I1016
atp1083
s(I4
I86
tp1084
(I12
(lp1085
I1286
atp1086
s(I2
I98
tp1087
(I6
(lp1088
I1025
atp1089
s(I8
I17
tp1090
(I14
(lp1091
I1495
atp1092
s(I7
I15
tp1093
(I13
(lp1094
I1342
atp1095
s(I5
I94
tp1096
(I5
(lp1097
I986
atp1098
s(I3
I98
tp1099
(I6
(lp1100
I1010
atp1101
s(I0
I35
tp1102
(I1
(lp1103
I808
atp1104
s(I3
I46
tp1105
(I10
(lp1106
I1181
atp1107
s(I6
I9
tp1108
(I13
(lp1109
I1367
atp1110
s(I4
I41
tp1111
(I10
(lp1112
I1199
atp1113
s(I2
I41
tp1114
(I10
(lp1115
I1171
atp1116
s(I8
I44
tp1117
(I14
(lp1118
I1522
atp1119
s(I7
I12
tp1120
(I13
(lp1121
I1345
atp1122
s(I0
I77
tp1123
(I4
(lp1124
I941
atp1125
s(I5
I44
tp1126
(I1
(lp1127
I826
atp1128
s(I3
I52
tp1129
(I8
(lp1130
I1091
atp1131
s(I9
I41
tp1132
(I14
(lp1133
I1436
atp1134
s(I6
I35
tp1135
(I13
(lp1136
I1393
atp1137
s(I4
I55
tp1138
(I2
(lp1139
I842
atp1140
s(I1
I83
tp1141
(I4
(lp1142
I934
atp1143
s(I2
I67
tp1144
(I8
(lp1145
I1113
atp1146
s(I8
I50
tp1147
(I14
(lp1148
I1528
atp1149
s(I7
I42
tp1150
(I13
(lp1151
I1315
atp1152
s(I5
I54
tp1153
(I2
(lp1154
I858
atp1155
s(I4
I48
tp1156
(I10
(lp1157
I1206
atp1158
s(I3
I69
tp1159
(I9
(lp1160
I1158
atp1161
s(I4
I93
tp1162
(I12
(lp1163
I1293
atp1164
s(I1
I117
tp1165
(I7
(lp1166
I1054
atp1167
s(I8
I24
tp1168
(I14
(lp1169
I1502
atp1170
s(I9
I21
tp1171
(I14
(lp1172
I1456
atp1173
s(I5
I71
tp1174
(I12
(lp1175
I1254
atp1176
s(I3
I107
tp1177
(I11
(lp1178
I1246
atp1179
s(I1
I111
tp1180
(I7
(lp1181
I1060
atp1182
s(I7
I37
tp1183
(I13
(lp1184
I1320
atp1185
s(I5
I97
tp1186
(I5
(lp1187
I983
atp1188
s(I3
I113
tp1189
(I11
(lp1190
I1240
atp1191
s(I0
I58
tp1192
(I2
(lp1193
I873
atp1194
s(I1
I59
tp1195
(I3
(lp1196
I909
atp1197
s(I6
I0
tp1198
(I13
(lp1199
I1358
atp1200
s(I7
I5
tp1201
(I13
(lp1202
I1352
atp1203
s(I3
I61
tp1204
(I8
(lp1205
I1082
atp1206
s(I7
I0
tp1207
(I13
(lp1208
I1357
atp1209
s(I6
I26
tp1210
(I13
(lp1211
I1384
atp1212
s(I4
I62
tp1213
(I2
(lp1214
I849
atp1215
s(I1
I84
tp1216
(I4
(lp1217
I933
atp1218
s(I2
I90
tp1219
(I9
(lp1220
I1136
atp1221
s(I8
I57
tp1222
(I14
(lp1223
I1535
atp1224
s(I7
I35
tp1225
(I13
(lp1226
I1322
atp1227
s(I5
I63
tp1228
(I12
(lp1229
I1262
atp1230
s(I9
I52
tp1231
(I14
(lp1232
I1425
atp1233
s(I3
I74
tp1234
(I9
(lp1235
I1153
atp1236
s(I4
I68
tp1237
(I12
(lp1238
I1268
atp1239
s(I1
I78
tp1240
(I4
(lp1241
I939
atp1242
s(I2
I116
tp1243
(I7
(lp1244
I1078
atp1245
s(I8
I31
tp1246
(I14
(lp1247
I1509
atp1248
s(I0
I108
tp1249
(I7
(lp1250
I1042
atp1251
s(I9
I30
tp1252
(I14
(lp1253
I1447
atp1254
s(I5
I64
tp1255
(I12
(lp1256
I1261
atp1257
s(I3
I80
tp1258
(I9
(lp1259
I1147
atp1260
s(I4
I98
tp1261
(I5
(lp1262
I969
atp1263
s(I1
I96
tp1264
(I4
(lp1265
I921
atp1266
s(I2
I110
tp1267
(I7
(lp1268
I1072
atp1269
s(I0
I88
tp1270
(I4
(lp1271
I952
atp1272
s(I5
I106
tp1273
(I11
(lp1274
I1219
atp1275
s(I3
I118
tp1276
(I11
(lp1277
I1235
atp1278
s(I0
I49
tp1279
(I2
(lp1280
I864
atp1281
s(I5
I116
tp1282
(I11
(lp1283
I1209
atp1284
s(I1
I60
tp1285
(I3
(lp1286
I908
atp1287
s(I2
I59
tp1288
(I8
(lp1289
I1105
atp1290
s(I0
I87
tp1291
(I4
(lp1292
I951
atp1293
s(I6
I29
tp1294
(I13
(lp1295
I1387
atp1296
s(I4
I37
tp1297
(I10
(lp1298
I1195
atp1299
s(I2
I85
tp1300
(I9
(lp1301
I1131
atp1302
s(I8
I32
tp1303
(I14
(lp1304
I1510
atp1305
s(I7
I24
tp1306
(I13
(lp1307
I1333
atp1308
s(I7
I30
tp1309
(I13
(lp1310
I1327
atp1311
s(I5
I56
tp1312
(I2
(lp1313
I856
atp1314
s(I6
I55
tp1315
(I13
(lp1316
I1413
atp1317
s(I4
I67
tp1318
(I12
(lp1319
I1267
atp1320
s(I1
I71
tp1321
(I3
(lp1322
I897
atp1323
s(I2
I79
tp1324
(I9
(lp1325
I1125
atp1326
s(I8
I6
tp1327
(I14
(lp1328
I1484
atp1329
s(I7
I54
tp1330
(I13
(lp1331
I1303
atp1332
s(I9
I7
tp1333
(I14
(lp1334
I1470
atp1335
s(I5
I73
tp1336
(I12
(lp1337
I1252
atp1338
s(I3
I89
tp1339
(I9
(lp1340
I1138
atp1341
s(I4
I105
tp1342
(I11
(lp1343
I1221
atp1344
s(I2
I105
tp1345
(I7
(lp1346
I1067
atp1347
s(I5
I83
tp1348
(I4
(lp1349
I962
atp1350
s(I1
I53
tp1351
(I3
(lp1352
I915
atp1353
s(I2
I50
tp1354
(I8
(lp1355
I1096
atp1356
s(I0
I46
tp1357
(I1
(lp1358
I819
atp1359
s(I3
I43
tp1360
(I10
(lp1361
I1184
atp1362
s(I1
I47
tp1363
(I1
(lp1364
I795
atp1365
s(I6
I20
tp1366
(I13
(lp1367
I1378
atp1368
s(I4
I44
tp1369
(I10
(lp1370
I1202
atp1371
s(I2
I44
tp1372
(I10
(lp1373
I1174
atp1374
s(I8
I39
tp1375
(I14
(lp1376
I1517
atp1377
s(I0
I68
tp1378
(I3
(lp1379
I883
atp1380
s(I3
I49
tp1381
(I8
(lp1382
I1094
atp1383
s(I9
I38
tp1384
(I14
(lp1385
I1439
atp1386
s(I7
I6
tp1387
(I13
(lp1388
I1351
atp1389
s(I6
I46
tp1390
(I13
(lp1391
I1404
atp1392
s(I4
I74
tp1393
(I12
(lp1394
I1274
atp1395
s(I1
I88
tp1396
(I4
(lp1397
I929
atp1398
s(I2
I70
tp1399
(I8
(lp1400
I1116
atp1401
s(I8
I13
tp1402
(I14
(lp1403
I1491
atp1404
s(I7
I47
tp1405
(I13
(lp1406
I1310
atp1407
s(I9
I8
tp1408
(I14
(lp1409
I1469
atp1410
s(I3
I94
tp1411
(I6
(lp1412
I1014
atp1413
s(I4
I80
tp1414
(I12
(lp1415
I1280
atp1416
s(I1
I114
tp1417
(I7
(lp1418
I1057
atp1419
s(I2
I96
tp1420
(I6
(lp1421
I1023
atp1422
s(I8
I19
tp1423
(I14
(lp1424
I1497
atp1425
s(I9
I18
tp1426
(I14
(lp1427
I1459
atp1428
s(I5
I92
tp1429
(I5
(lp1430
I988
atp1431
s(I3
I100
tp1432
(I6
(lp1433
I1008
atp1434
s(I0
I70
tp1435
(I3
(lp1436
I885
atp1437
s(I5
I102
tp1438
(I5
(lp1439
I978
atp1440
s(I0
I37
tp1441
(I1
(lp1442
I810
atp1443
s(I6
I15
tp1444
(I13
(lp1445
I1373
atp1446
s(I4
I43
tp1447
(I10
(lp1448
I1201
atp1449
s(I2
I39
tp1450
(I10
(lp1451
I1169
atp1452
s(I8
I46
tp1453
(I14
(lp1454
I1524
atp1455
s(I0
I91
tp1456
(I5
(lp1457
I990
atp1458
s(I5
I42
tp1459
(I1
(lp1460
I828
atp1461
s(I3
I54
tp1462
(I8
(lp1463
I1089
atp1464
s(I9
I47
tp1465
(I14
(lp1466
I1430
atp1467
s(I6
I33
tp1468
(I13
(lp1469
I1391
atp1470
s(I4
I49
tp1471
(I2
(lp1472
I836
atp1473
s(I1
I81
tp1474
(I4
(lp1475
I936
atp1476
s(I2
I65
tp1477
(I8
(lp1478
I1111
atp1479
s(I8
I52
tp1480
(I14
(lp1481
I1530
atp1482
s(I0
I113
tp1483
(I7
(lp1484
I1047
atp1485
s(I7
I28
tp1486
(I13
(lp1487
I1329
atp1488
s(I5
I52
tp1489
(I2
(lp1490
I860
atp1491
s(I9
I49
tp1492
(I14
(lp1493
I1428
atp1494
s(I6
I59
tp1495
(I13
(lp1496
I1417
atp1497
s(I3
I71
tp1498
(I9
(lp1499
I1156
atp1500
s(I4
I95
tp1501
(I12
(lp1502
I1295
atp1503
s(I1
I75
tp1504
(I3
(lp1505
I893
atp1506
s(I8
I26
tp1507
(I14
(lp1508
I1504
atp1509
s(I9
I27
tp1510
(I14
(lp1511
I1450
atp1512
s(I5
I69
tp1513
(I12
(lp1514
I1256
atp1515
s(I3
I109
tp1516
(I11
(lp1517
I1244
atp1518
s(I4
I101
tp1519
(I5
(lp1520
I972
atp1521
s(I1
I109
tp1522
(I7
(lp1523
I1062
atp1524
s(I7
I57
tp1525
(I13
(lp1526
I1300
atp1527
s(I5
I111
tp1528
(I11
(lp1529
I1214
atp1530
s(I3
I115
tp1531
(I11
(lp1532
I1238
atp1533
s(I0
I60
tp1534
(I2
(lp1535
I875
atp1536
s(I1
I57
tp1537
(I3
(lp1538
I911
atp1539
s(I6
I6
tp1540
(I13
(lp1541
I1364
atp1542
s(I2
I62
tp1543
(I8
(lp1544
I1108
atp1545
s(I7
I7
tp1546
(I13
(lp1547
I1350
atp1548
s(I3
I63
tp1549
(I9
(lp1550
I1164
atp1551
s(I6
I24
tp1552
(I13
(lp1553
I1382
atp1554
s(I4
I56
tp1555
(I2
(lp1556
I843
atp1557
s(I2
I88
tp1558
(I9
(lp1559
I1134
atp1560
s(I8
I59
tp1561
(I14
(lp1562
I1537
atp1563
s(I7
I29
tp1564
(I13
(lp1565
I1328
atp1566
s(I5
I61
tp1567
(I2
(lp1568
I851
atp1569
s(I9
I58
tp1570
(I14
(lp1571
I1419
atp1572
s(I7
I4
tp1573
(I13
(lp1574
I1353
atp1575
s(I6
I50
tp1576
(I13
(lp1577
I1408
atp1578
s(I3
I76
tp1579
(I9
(lp1580
I1151
atp1581
s(I4
I70
tp1582
(I12
(lp1583
I1270
atp1584
s(I1
I76
tp1585
(I3
(lp1586
I892
atp1587
s(I2
I114
tp1588
(I7
(lp1589
I1076
atp1590
s(I8
I1
tp1591
(I14
(lp1592
I1479
atp1593
s(I7
I59
tp1594
(I13
(lp1595
I1298
atp1596
s(I9
I28
tp1597
(I14
(lp1598
I1449
atp1599
s(I5
I78
tp1600
(I4
(lp1601
I967
atp1602
s(I3
I82
tp1603
(I9
(lp1604
I1145
atp1605
s(I4
I108
tp1606
(I11
(lp1607
I1224
atp1608
s(I1
I102
tp1609
(I6
(lp1610
I1034
atp1611
s(I2
I108
tp1612
(I7
(lp1613
I1070
atp1614
s(I4
I82
tp1615
(I12
(lp1616
I1282
atp1617
s(I5
I104
tp1618
(I5
(lp1619
I976
atp1620
s(I0
I51
tp1621
(I2
(lp1622
I866
atp1623
s(I7
I17
tp1624
(I13
(lp1625
I1340
atp1626
s(I5
I114
tp1627
(I11
(lp1628
I1211
atp1629
s(I1
I50
tp1630
(I3
(lp1631
I918
atp1632
s(I2
I57
tp1633
(I8
(lp1634
I1103
atp1635
s(I0
I41
tp1636
(I1
(lp1637
I814
atp1638
s(I3
I36
tp1639
(I10
(lp1640
I1191
atp1641
s(I6
I19
tp1642
(I13
(lp1643
I1377
atp1644
s(I4
I39
tp1645
(I10
(lp1646
I1197
atp1647
s(I2
I83
tp1648
(I9
(lp1649
I1129
atp1650
s(I8
I34
tp1651
(I14
(lp1652
I1512
atp1653
s(I7
I26
tp1654
(I13
(lp1655
I1331
atp1656
s(I5
I38
tp1657
(I1
(lp1658
I832
atp1659
s(I9
I35
tp1660
(I14
(lp1661
I1442
atp1662
s(I6
I53
tp1663
(I13
(lp1664
I1411
atp1665
s(I4
I77
tp1666
(I12
(lp1667
I1277
atp1668
s(I1
I69
tp1669
(I3
(lp1670
I899
atp1671
s(I2
I77
tp1672
(I9
(lp1673
I1123
atp1674
s(I8
I8
tp1675
(I14
(lp1676
I1486
atp1677
s(I7
I48
tp1678
(I13
(lp1679
I1309
atp1680
s(I9
I5
tp1681
(I14
(lp1682
I1472
atp1683
s(I3
I91
tp1684
(I6
(lp1685
I1017
atp1686
s(I4
I107
tp1687
(I11
(lp1688
I1223
atp1689
s(I2
I103
tp1690
(I6
(lp1691
I1030
atp1692
s(I0
I110
tp1693
(I7
(lp1694
I1044
atp1695
s(I5
I81
tp1696
(I4
(lp1697
I964
atp1698
s(I3
I97
tp1699
(I6
(lp1700
I1011
atp1701
s(I4
I113
tp1702
(I11
(lp1703
I1229
atp1704
s(I2
I48
tp1705
(I10
(lp1706
I1178
atp1707
s(I7
I52
tp1708
(I13
(lp1709
I1305
atp1710
s(I3
I45
tp1711
(I10
(lp1712
I1182
atp1713
s(I1
I45
tp1714
(I1
(lp1715
I797
atp1716
s(I6
I10
tp1717
(I13
(lp1718
I1368
atp1719
s(I4
I46
tp1720
(I10
(lp1721
I1204
atp1722
s(I2
I42
tp1723
(I10
(lp1724
I1172
atp1725
s(I8
I41
tp1726
(I14
(lp1727
I1519
atp1728
s(I7
I19
tp1729
(I13
(lp1730
I1338
atp1731
s(I5
I47
tp1732
(I1
(lp1733
I823
atp1734
s(I3
I51
tp1735
(I8
(lp1736
I1092
atp1737
s(I9
I36
tp1738
(I14
(lp1739
I1441
atp1740
s(I6
I44
tp1741
(I13
(lp1742
I1402
atp1743
s(I4
I52
tp1744
(I2
(lp1745
I839
atp1746
s(I1
I94
tp1747
(I4
(lp1748
I923
atp1749
s(I2
I68
tp1750
(I8
(lp1751
I1114
atp1752
s(I8
I15
tp1753
(I14
(lp1754
I1493
atp1755
s(I7
I41
tp1756
(I13
(lp1757
I1316
atp1758
s(I9
I14
tp1759
(I14
(lp1760
I1463
atp1761
s(I0
I95
tp1762
(I5
(lp1763
I994
atp1764
s(I3
I64
tp1765
(I9
(lp1766
I1163
atp1767
s(I7
I56
tp1768
(I13
(lp1769
I1301
atp1770
s(I1
I112
tp1771
(I7
(lp1772
I1059
atp1773
s(I8
I21
tp1774
(I14
(lp1775
I1499
atp1776
s(I9
I16
tp1777
(I14
(lp1778
I1461
atp1779
s(I5
I90
tp1780
(I4
(lp1781
I955
atp1782
s(I3
I102
tp1783
(I6
(lp1784
I1006
atp1785
s(I1
I106
tp1786
(I7
(lp1787
I1065
atp1788
s(I5
I100
tp1789
(I5
(lp1790
I980
atp1791
s(I7
I58
tp1792
(I13
(lp1793
I1299
atp1794
s(I0
I39
tp1795
(I1
(lp1796
I812
atp1797
s(I7
I23
tp1798
(I13
(lp1799
I1334
atp1800
s(I1
I38
tp1801
(I1
(lp1802
I804
atp1803
s(I6
I13
tp1804
(I13
(lp1805
I1371
atp1806
s(I2
I37
tp1807
(I10
(lp1808
I1167
atp1809
s(I0
I93
tp1810
(I5
(lp1811
I992
atp1812
s(I5
I40
tp1813
(I1
(lp1814
I830
atp1815
s(I3
I56
tp1816
(I8
(lp1817
I1087
atp1818
s(I9
I45
tp1819
(I14
(lp1820
I1432
atp1821
s(I6
I39
tp1822
(I13
(lp1823
I1397
atp1824
s(I4
I51
tp1825
(I2
(lp1826
I838
atp1827
s(I1
I87
tp1828
(I4
(lp1829
I930
atp1830
s(I2
I95
tp1831
(I6
(lp1832
I1022
atp1833
s(I8
I54
tp1834
(I14
(lp1835
I1532
atp1836
s(I0
I115
tp1837
(I7
(lp1838
I1049
atp1839
s(I5
I50
tp1840
(I2
(lp1841
I862
atp1842
s(I9
I55
tp1843
(I14
(lp1844
I1422
atp1845
s(I6
I57
tp1846
(I13
(lp1847
I1415
atp1848
s(I3
I73
tp1849
(I9
(lp1850
I1154
atp1851
s(I4
I89
tp1852
(I12
(lp1853
I1289
atp1854
s(I1
I73
tp1855
(I3
(lp1856
I895
atp1857
s(I8
I28
tp1858
(I14
(lp1859
I1506
atp1860
s(I0
I105
tp1861
(I7
(lp1862
I1039
atp1863
s(I0
I117
tp1864
(I7
(lp1865
I1051
atp1866
s(I9
I25
tp1867
(I14
(lp1868
I1452
atp1869
s(I5
I67
tp1870
(I12
(lp1871
I1258
atp1872
s(I3
I111
tp1873
(I11
(lp1874
I1242
atp1875
s(I4
I103
tp1876
(I5
(lp1877
I974
atp1878
s(I1
I99
tp1879
(I6
(lp1880
I1037
atp1881
s(I5
I109
tp1882
(I11
(lp1883
I1216
atp1884
s(I3
I117
tp1885
(I11
(lp1886
I1236
atp1887
s(I0
I99
tp1888
(I5
(lp1889
I998
atp1890
s(I0
I62
tp1891
(I2
(lp1892
I877
atp1893
s(I1
I63
tp1894
(I3
(lp1895
I905
atp1896
s(I6
I4
tp1897
(I13
(lp1898
I1362
atp1899
s(I2
I60
tp1900
(I8
(lp1901
I1106
atp1902
s(I7
I1
tp1903
(I13
(lp1904
I1356
atp1905
s(I6
I30
tp1906
(I13
(lp1907
I1388
atp1908
s(I4
I58
tp1909
(I2
(lp1910
I845
atp1911
s(I2
I86
tp1912
(I9
(lp1913
I1132
atp1914
s(I7
I31
tp1915
(I13
(lp1916
I1326
atp1917
s(I5
I59
tp1918
(I2
(lp1919
I853
atp1920
s(I9
I56
tp1921
(I14
(lp1922
I1421
atp1923
s(I6
I48
tp1924
(I13
(lp1925
I1406
atp1926
s(I3
I78
tp1927
(I9
(lp1928
I1149
atp1929
s(I4
I64
tp1930
(I12
(lp1931
I1264
atp1932
s(I1
I66
tp1933
(I3
(lp1934
I902
atp1935
s(I2
I112
tp1936
(I7
(lp1937
I1074
atp1938
s(I8
I3
tp1939
(I14
(lp1940
I1481
atp1941
s(I0
I96
tp1942
(I5
(lp1943
I995
atp1944
s(I9
I2
tp1945
(I14
(lp1946
I1475
atp1947
s(I7
I8
tp1948
(I13
(lp1949
I1349
atp1950
s(I5
I76
tp1951
(I12
(lp1952
I1249
atp1953
s(I3
I84
tp1954
(I9
(lp1955
I1143
atp1956
s(I4
I110
tp1957
(I11
(lp1958
I1226
atp1959
s(I1
I100
tp1960
(I6
(lp1961
I1036
atp1962
s(I2
I106
tp1963
(I7
(lp1964
I1068
atp1965
s(I5
I86
tp1966
(I4
(lp1967
I959
atp1968
s(I4
I116
tp1969
(I11
(lp1970
I1232
atp1971
s(I0
I53
tp1972
(I2
(lp1973
I868
atp1974
s(I5
I112
tp1975
(I11
(lp1976
I1213
atp1977
s(I1
I48
tp1978
(I1
(lp1979
I794
atp1980
s(I2
I55
tp1981
(I8
(lp1982
I1101
atp1983
s(I0
I43
tp1984
(I1
(lp1985
I816
atp1986
s(I7
I21
tp1987
(I13
(lp1988
I1336
atp1989
s(I3
I38
tp1990
(I10
(lp1991
I1189
atp1992
s(I1
I42
tp1993
(I1
(lp1994
I800
atp1995
s(I6
I17
tp1996
(I13
(lp1997
I1375
atp1998
s(I2
I81
tp1999
(I9
(lp2000
I1127
atp2001
s(I8
I36
tp2002
(I14
(lp2003
I1514
atp2004
s(I7
I20
tp2005
(I13
(lp2006
I1337
atp2007
s(I5
I36
tp2008
(I1
(lp2009
I834
atp2010
s(I9
I33
tp2011
(I14
(lp2012
I1444
atp2013
s(I6
I43
tp2014
(I13
(lp2015
I1401
atp2016
s(I4
I79
tp2017
(I12
(lp2018
I1279
atp2019
s(I1
I91
tp2020
(I4
(lp2021
I926
atp2022
s(I2
I75
tp2023
(I8
(lp2024
I1121
atp2025
s(I8
I10
tp2026
(I14
(lp2027
I1488
atp2028
s(I7
I50
tp2029
(I13
(lp2030
I1307
atp2031
s(I9
I11
tp2032
(I14
(lp2033
I1466
atp2034
s(I3
I93
tp2035
(I6
(lp2036
I1015
atp2037
s(I4
I85
tp2038
(I12
(lp2039
I1285
atp2040
s(I2
I101
tp2041
(I6
(lp2042
I1028
atp2043
s(I8
I16
tp2044
(I14
(lp2045
I1494
atp2046
s(I7
I38
tp2047
(I13
(lp2048
I1319
atp2049
s(I5
I95
tp2050
(I5
(lp2051
I985
atp2052
s(I3
I99
tp2053
(I6
(lp2054
I1009
atp2055
s(I4
I115
tp2056
(I11
(lp2057
I1231
atp2058
s(I3
I47
tp2059
(I10
(lp2060
I1180
atp2061
s(I1
I35
tp2062
(I1
(lp2063
I807
atp2064
s(I6
I8
tp2065
(I13
(lp2066
I1366
atp2067
s(I7
I51
tp2068
(I13
(lp2069
I1306
atp2070
s(I2
I40
tp2071
(I10
(lp2072
I1170
atp2073
s(I8
I43
tp2074
(I14
(lp2075
I1521
atp2076
s(I7
I13
tp2077
(I13
(lp2078
I1344
atp2079
s(I5
I45
tp2080
(I1
(lp2081
I825
atp2082
s(I7
I2
tp2083
(I13
(lp2084
I1355
atp2085
s(I3
I53
tp2086
(I8
(lp2087
I1090
atp2088
s(I9
I42
tp2089
(I14
(lp2090
I1435
atp2091
s(I6
I34
tp2092
(I13
(lp2093
I1392
atp2094
s(I4
I54
tp2095
(I2
(lp2096
I841
atp2097
s(I1
I92
tp2098
(I4
(lp2099
I925
atp2100
s(I2
I66
tp2101
(I8
(lp2102
I1112
atp2103
s(I8
I49
tp2104
(I14
(lp2105
I1527
atp2106
s(I7
I43
tp2107
(I13
(lp2108
I1314
atp2109
s(I5
I55
tp2110
(I2
(lp2111
I857
atp2112
s(I9
I12
tp2113
(I14
(lp2114
I1465
atp2115
s(I3
I66
tp2116
(I9
(lp2117
I1161
atp2118
s(I4
I92
tp2119
(I12
(lp2120
I1292
atp2121
s(I1
I118
tp2122
(I7
(lp2123
I1053
atp2124
s(I8
I23
tp2125
(I14
(lp2126
I1501
atp2127
s(I9
I22
tp2128
(I14
(lp2129
I1455
atp2130
s(I7
I14
tp2131
(I13
(lp2132
I1343
atp2133
s(I5
I88
tp2134
(I4
(lp2135
I957
atp2136
s(I3
I104
tp2137
(I6
(lp2138
I1004
atp2139
s(I1
I104
tp2140
(I6
(lp2141
I1032
atp2142
s(I7
I53
tp2143
(I13
(lp2144
I1304
atp2145
s(I5
I98
tp2146
(I5
(lp2147
I982
atp2148
s(I0
I57
tp2149
(I2
(lp2150
I872
atp2151
s(I1
I36
tp2152
(I1
(lp2153
I806
atp2154
s(I6
I3
tp2155
(I13
(lp2156
I1361
atp2157
s(I2
I35
tp2158
(I10
(lp2159
I1165
atp2160
s(I7
I10
tp2161
(I13
(lp2162
I1347
atp2163
s(I7
I27
tp2164
(I13
(lp2165
I1330
atp2166
s(I3
I58
tp2167
(I8
(lp2168
I1085
atp2169
s(I6
I37
tp2170
(I13
(lp2171
I1395
atp2172
s(I4
I61
tp2173
(I2
(lp2174
I848
atp2175
s(I1
I85
tp2176
(I4
(lp2177
I932
atp2178
s(I2
I93
tp2179
(I6
(lp2180
I1020
atp2181
s(I8
I56
tp2182
(I14
(lp2183
I1534
atp2184
s(I7
I32
tp2185
(I13
(lp2186
I1325
atp2187
s(I5
I48
tp2188
(I1
(lp2189
I822
atp2190
s(I9
I53
tp2191
(I14
(lp2192
I1424
atp2193
s(I3
I75
tp2194
(I9
(lp2195
I1152
atp2196
s(I4
I91
tp2197
(I12
(lp2198
I1291
atp2199
s(I1
I79
tp2200
(I4
(lp2201
I938
atp2202
s(I8
I30
tp2203
(I14
(lp2204
I1508
atp2205
s(I0
I107
tp2206
(I7
(lp2207
I1041
atp2208
s(I9
I31
tp2209
(I14
(lp2210
I1446
atp2211
s(I5
I65
tp2212
(I12
(lp2213
I1260
atp2214
s(I3
I81
tp2215
(I9
(lp2216
I1146
atp2217
s(I4
I97
tp2218
(I12
(lp2219
I1297
atp2220
s(I1
I97
tp2221
(I4
(lp2222
I920
atp2223
s(I7
I36
tp2224
(I13
(lp2225
I1321
atp2226
s(I5
I107
tp2227
(I11
(lp2228
I1218
atp2229
s(I0
I48
tp2230
(I1
(lp2231
I821
atp2232
s(I5
I117
tp2233
(I11
(lp2234
I1208
atp2235
s(I1
I61
tp2236
(I3
(lp2237
I907
atp2238
s(I2
I58
tp2239
(I8
(lp2240
I1104
atp2241
ssS'_scaf'
p2242
(dp2243
(I7
I3
tp2244
(I0
(lp2245
I737
atp2246
s(I3
I35
tp2247
(I0
(lp2248
I600
atp2249
s(I0
I86
tp2250
(I0
(lp2251
I462
atp2252
s(I6
I28
tp2253
(I0
(lp2254
I705
atp2255
s(I4
I36
tp2256
(I0
(lp2257
I672
atp2258
s(I2
I84
tp2259
(I0
(lp2260
I352
atp2261
s(I7
I25
tp2262
(I0
(lp2263
I759
atp2264
s(I5
I57
tp2265
(I0
(lp2266
I142
atp2267
s(I6
I54
tp2268
(I0
(lp2269
I679
atp2270
s(I4
I66
tp2271
(I0
(lp2272
I642
atp2273
s(I1
I64
tp2274
(I0
(lp2275
I553
atp2276
s(I2
I78
tp2277
(I0
(lp2278
I358
atp2279
s(I8
I5
tp2280
(I0
(lp2281
I54
atp2282
s(I7
I55
tp2283
(I0
(lp2284
I789
atp2285
s(I9
I0
tp2286
(I0
(lp2287
I60
atp2288
s(I5
I74
tp2289
(I0
(lp2290
I159
atp2291
s(I3
I86
tp2292
(I0
(lp2293
I275
atp2294
s(I4
I104
tp2295
(I0
(lp2296
I228
atp2297
s(I1
I122
tp2298
(I0
(lp2299
I423
atp2300
s(I2
I104
tp2301
(I0
(lp2302
I332
atp2303
s(I7
I12
tp2304
(I0
(lp2305
I746
atp2306
s(I5
I84
tp2307
(I0
(lp2308
I169
atp2309
s(I4
I118
tp2310
(I0
(lp2311
I214
atp2312
s(I0
I55
tp2313
(I0
(lp2314
I493
atp2315
s(I1
I54
tp2316
(I0
(lp2317
I543
atp2318
s(I2
I53
tp2319
(I0
(lp2320
I571
atp2321
s(I0
I45
tp2322
(I0
(lp2323
I503
atp2324
s(I3
I40
tp2325
(I0
(lp2326
I605
atp2327
s(I1
I40
tp2328
(I0
(lp2329
I529
atp2330
s(I6
I23
tp2331
(I0
(lp2332
I710
atp2333
s(I4
I35
tp2334
(I0
(lp2335
I673
atp2336
s(I2
I47
tp2337
(I0
(lp2338
I577
atp2339
s(I8
I38
tp2340
(I0
(lp2341
I21
atp2342
s(I0
I67
tp2343
(I0
(lp2344
I481
atp2345
s(I0
I76
tp2346
(I0
(lp2347
I472
atp2348
s(I9
I39
tp2349
(I0
(lp2350
I99
atp2351
s(I6
I41
tp2352
(I0
(lp2353
I692
atp2354
s(I4
I73
tp2355
(I0
(lp2356
I259
atp2357
s(I1
I89
tp2358
(I0
(lp2359
I390
atp2360
s(I2
I73
tp2361
(I0
(lp2362
I363
atp2363
s(I8
I12
tp2364
(I0
(lp2365
I47
atp2366
s(I0
I121
tp2367
(I0
(lp2368
I427
atp2369
s(I9
I9
tp2370
(I0
(lp2371
I69
atp2372
s(I3
I95
tp2373
(I0
(lp2374
I284
atp2375
s(I4
I87
tp2376
(I0
(lp2377
I245
atp2378
s(I1
I115
tp2379
(I0
(lp2380
I416
atp2381
s(I2
I99
tp2382
(I0
(lp2383
I337
atp2384
s(I8
I18
tp2385
(I0
(lp2386
I41
atp2387
s(I9
I19
tp2388
(I0
(lp2389
I79
atp2390
s(I5
I93
tp2391
(I0
(lp2392
I178
atp2393
s(I3
I101
tp2394
(I0
(lp2395
I290
atp2396
s(I5
I103
tp2397
(I0
(lp2398
I188
atp2399
s(I0
I36
tp2400
(I0
(lp2401
I512
atp2402
s(I1
I33
tp2403
(I0
(lp2404
I522
atp2405
s(I6
I14
tp2406
(I0
(lp2407
I719
atp2408
s(I4
I42
tp2409
(I0
(lp2410
I666
atp2411
s(I2
I38
tp2412
(I0
(lp2413
I586
atp2414
s(I8
I45
tp2415
(I0
(lp2416
I14
atp2417
s(I7
I15
tp2418
(I0
(lp2419
I749
atp2420
s(I5
I43
tp2421
(I0
(lp2422
I128
atp2423
s(I3
I55
tp2424
(I0
(lp2425
I620
atp2426
s(I9
I40
tp2427
(I0
(lp2428
I100
atp2429
s(I7
I1
tp2430
(I0
(lp2431
I735
atp2432
s(I6
I32
tp2433
(I0
(lp2434
I701
atp2435
s(I0
I98
tp2436
(I0
(lp2437
I450
atp2438
s(I1
I82
tp2439
(I0
(lp2440
I383
atp2441
s(I2
I64
tp2442
(I0
(lp2443
I560
atp2444
s(I8
I51
tp2445
(I0
(lp2446
I8
atp2447
s(I0
I112
tp2448
(I0
(lp2449
I436
atp2450
s(I5
I53
tp2451
(I0
(lp2452
I138
atp2453
s(I9
I50
tp2454
(I0
(lp2455
I110
atp2456
s(I6
I58
tp2457
(I0
(lp2458
I675
atp2459
s(I3
I68
tp2460
(I0
(lp2461
I633
atp2462
s(I4
I94
tp2463
(I0
(lp2464
I238
atp2465
s(I1
I116
tp2466
(I0
(lp2467
I417
atp2468
s(I2
I122
tp2469
(I0
(lp2470
I314
atp2471
s(I8
I25
tp2472
(I0
(lp2473
I34
atp2474
s(I9
I20
tp2475
(I0
(lp2476
I80
atp2477
s(I5
I70
tp2478
(I0
(lp2479
I155
atp2480
s(I3
I106
tp2481
(I0
(lp2482
I295
atp2483
s(I4
I100
tp2484
(I0
(lp2485
I232
atp2486
s(I1
I110
tp2487
(I0
(lp2488
I411
atp2489
s(I0
I71
tp2490
(I0
(lp2491
I477
atp2492
s(I5
I96
tp2493
(I0
(lp2494
I181
atp2495
s(I3
I112
tp2496
(I0
(lp2497
I301
atp2498
s(I0
I59
tp2499
(I0
(lp2500
I489
atp2501
s(I1
I58
tp2502
(I0
(lp2503
I547
atp2504
s(I6
I1
tp2505
(I0
(lp2506
I732
atp2507
s(I2
I33
tp2508
(I0
(lp2509
I591
atp2510
s(I7
I4
tp2511
(I0
(lp2512
I738
atp2513
s(I3
I60
tp2514
(I0
(lp2515
I625
atp2516
s(I6
I27
tp2517
(I0
(lp2518
I706
atp2519
s(I4
I63
tp2520
(I0
(lp2521
I645
atp2522
s(I2
I91
tp2523
(I0
(lp2524
I345
atp2525
s(I8
I58
tp2526
(I0
(lp2527
I1
atp2528
s(I0
I119
tp2529
(I0
(lp2530
I429
atp2531
s(I7
I31
tp2532
(I0
(lp2533
I765
atp2534
s(I5
I62
tp2535
(I0
(lp2536
I147
atp2537
s(I9
I59
tp2538
(I0
(lp2539
I119
atp2540
s(I3
I77
tp2541
(I0
(lp2542
I266
atp2543
s(I4
I69
tp2544
(I0
(lp2545
I639
atp2546
s(I1
I77
tp2547
(I0
(lp2548
I378
atp2549
s(I2
I117
tp2550
(I0
(lp2551
I319
atp2552
s(I8
I0
tp2553
(I0
(lp2554
I59
atp2555
s(I0
I109
tp2556
(I0
(lp2557
I439
atp2558
s(I9
I29
tp2559
(I0
(lp2560
I89
atp2561
s(I5
I79
tp2562
(I0
(lp2563
I164
atp2564
s(I3
I83
tp2565
(I0
(lp2566
I272
atp2567
s(I4
I99
tp2568
(I0
(lp2569
I233
atp2570
s(I1
I103
tp2571
(I0
(lp2572
I404
atp2573
s(I2
I111
tp2574
(I0
(lp2575
I325
atp2576
s(I5
I105
tp2577
(I0
(lp2578
I190
atp2579
s(I3
I121
tp2580
(I0
(lp2581
I310
atp2582
s(I2
I30
tp2583
(I0
(lp2584
I594
atp2585
s(I0
I50
tp2586
(I0
(lp2587
I498
atp2588
s(I5
I115
tp2589
(I0
(lp2590
I200
atp2591
s(I3
I31
tp2592
(I0
(lp2593
I596
atp2594
s(I1
I51
tp2595
(I0
(lp2596
I540
atp2597
s(I2
I56
tp2598
(I0
(lp2599
I568
atp2600
s(I0
I40
tp2601
(I0
(lp2602
I508
atp2603
s(I3
I37
tp2604
(I0
(lp2605
I602
atp2606
s(I6
I18
tp2607
(I0
(lp2608
I715
atp2609
s(I4
I38
tp2610
(I0
(lp2611
I670
atp2612
s(I2
I82
tp2613
(I0
(lp2614
I354
atp2615
s(I8
I33
tp2616
(I0
(lp2617
I26
atp2618
s(I7
I27
tp2619
(I0
(lp2620
I761
atp2621
s(I5
I39
tp2622
(I0
(lp2623
I124
atp2624
s(I0
I82
tp2625
(I0
(lp2626
I466
atp2627
s(I6
I52
tp2628
(I0
(lp2629
I681
atp2630
s(I7
I53
tp2631
(I0
(lp2632
I787
atp2633
s(I1
I70
tp2634
(I0
(lp2635
I371
atp2636
s(I2
I76
tp2637
(I0
(lp2638
I360
atp2639
s(I8
I7
tp2640
(I0
(lp2641
I52
atp2642
s(I7
I49
tp2643
(I0
(lp2644
I783
atp2645
s(I9
I6
tp2646
(I0
(lp2647
I66
atp2648
s(I5
I72
tp2649
(I0
(lp2650
I157
atp2651
s(I3
I88
tp2652
(I0
(lp2653
I277
atp2654
s(I4
I106
tp2655
(I0
(lp2656
I226
atp2657
s(I1
I120
tp2658
(I0
(lp2659
I421
atp2660
s(I2
I102
tp2661
(I0
(lp2662
I334
atp2663
s(I5
I82
tp2664
(I0
(lp2665
I167
atp2666
s(I4
I112
tp2667
(I0
(lp2668
I220
atp2669
s(I7
I16
tp2670
(I0
(lp2671
I750
atp2672
s(I1
I52
tp2673
(I0
(lp2674
I541
atp2675
s(I2
I51
tp2676
(I0
(lp2677
I573
atp2678
s(I0
I47
tp2679
(I0
(lp2680
I501
atp2681
s(I3
I42
tp2682
(I0
(lp2683
I607
atp2684
s(I7
I59
tp2685
(I0
(lp2686
I793
atp2687
s(I1
I46
tp2688
(I0
(lp2689
I535
atp2690
s(I6
I21
tp2691
(I0
(lp2692
I712
atp2693
s(I4
I45
tp2694
(I0
(lp2695
I663
atp2696
s(I2
I45
tp2697
(I0
(lp2698
I579
atp2699
s(I8
I40
tp2700
(I0
(lp2701
I19
atp2702
s(I0
I69
tp2703
(I0
(lp2704
I479
atp2705
s(I3
I48
tp2706
(I0
(lp2707
I613
atp2708
s(I9
I37
tp2709
(I0
(lp2710
I97
atp2711
s(I6
I47
tp2712
(I0
(lp2713
I686
atp2714
s(I4
I75
tp2715
(I0
(lp2716
I257
atp2717
s(I1
I95
tp2718
(I0
(lp2719
I396
atp2720
s(I2
I71
tp2721
(I0
(lp2722
I365
atp2723
s(I8
I14
tp2724
(I0
(lp2725
I45
atp2726
s(I7
I46
tp2727
(I0
(lp2728
I780
atp2729
s(I0
I72
tp2730
(I0
(lp2731
I476
atp2732
s(I9
I15
tp2733
(I0
(lp2734
I75
atp2735
s(I3
I65
tp2736
(I0
(lp2737
I630
atp2738
s(I4
I81
tp2739
(I0
(lp2740
I251
atp2741
s(I1
I113
tp2742
(I0
(lp2743
I414
atp2744
s(I2
I97
tp2745
(I0
(lp2746
I339
atp2747
s(I8
I20
tp2748
(I0
(lp2749
I39
atp2750
s(I9
I17
tp2751
(I0
(lp2752
I77
atp2753
s(I5
I91
tp2754
(I0
(lp2755
I176
atp2756
s(I3
I103
tp2757
(I0
(lp2758
I292
atp2759
s(I1
I107
tp2760
(I0
(lp2761
I408
atp2762
s(I5
I101
tp2763
(I0
(lp2764
I186
atp2765
s(I0
I123
tp2766
(I0
(lp2767
I425
atp2768
s(I0
I38
tp2769
(I0
(lp2770
I510
atp2771
s(I1
I39
tp2772
(I0
(lp2773
I528
atp2774
s(I6
I12
tp2775
(I0
(lp2776
I721
atp2777
s(I2
I36
tp2778
(I0
(lp2779
I588
atp2780
s(I8
I47
tp2781
(I0
(lp2782
I12
atp2783
s(I7
I9
tp2784
(I0
(lp2785
I743
atp2786
s(I5
I41
tp2787
(I0
(lp2788
I126
atp2789
s(I3
I57
tp2790
(I0
(lp2791
I622
atp2792
s(I9
I46
tp2793
(I0
(lp2794
I106
atp2795
s(I6
I38
tp2796
(I0
(lp2797
I695
atp2798
s(I4
I50
tp2799
(I0
(lp2800
I658
atp2801
s(I1
I80
tp2802
(I0
(lp2803
I381
atp2804
s(I2
I94
tp2805
(I0
(lp2806
I342
atp2807
s(I8
I53
tp2808
(I0
(lp2809
I6
atp2810
s(I0
I114
tp2811
(I0
(lp2812
I434
atp2813
s(I5
I51
tp2814
(I0
(lp2815
I136
atp2816
s(I9
I48
tp2817
(I0
(lp2818
I108
atp2819
s(I7
I5
tp2820
(I0
(lp2821
I739
atp2822
s(I6
I56
tp2823
(I0
(lp2824
I677
atp2825
s(I3
I70
tp2826
(I0
(lp2827
I635
atp2828
s(I4
I88
tp2829
(I0
(lp2830
I244
atp2831
s(I1
I74
tp2832
(I0
(lp2833
I375
atp2834
s(I2
I120
tp2835
(I0
(lp2836
I316
atp2837
s(I8
I27
tp2838
(I0
(lp2839
I32
atp2840
s(I0
I104
tp2841
(I0
(lp2842
I444
atp2843
s(I9
I26
tp2844
(I0
(lp2845
I86
atp2846
s(I5
I68
tp2847
(I0
(lp2848
I153
atp2849
s(I3
I108
tp2850
(I0
(lp2851
I297
atp2852
s(I4
I102
tp2853
(I0
(lp2854
I230
atp2855
s(I1
I108
tp2856
(I0
(lp2857
I409
atp2858
s(I5
I110
tp2859
(I0
(lp2860
I195
atp2861
s(I3
I114
tp2862
(I0
(lp2863
I303
atp2864
s(I0
I61
tp2865
(I0
(lp2866
I487
atp2867
s(I7
I22
tp2868
(I0
(lp2869
I756
atp2870
s(I1
I56
tp2871
(I0
(lp2872
I545
atp2873
s(I6
I7
tp2874
(I0
(lp2875
I726
atp2876
s(I2
I63
tp2877
(I0
(lp2878
I561
atp2879
s(I7
I6
tp2880
(I0
(lp2881
I740
atp2882
s(I3
I62
tp2883
(I0
(lp2884
I627
atp2885
s(I6
I25
tp2886
(I0
(lp2887
I708
atp2888
s(I4
I57
tp2889
(I0
(lp2890
I651
atp2891
s(I2
I89
tp2892
(I0
(lp2893
I347
atp2894
s(I7
I28
tp2895
(I0
(lp2896
I762
atp2897
s(I5
I60
tp2898
(I0
(lp2899
I145
atp2900
s(I9
I57
tp2901
(I0
(lp2902
I117
atp2903
s(I6
I51
tp2904
(I0
(lp2905
I682
atp2906
s(I3
I79
tp2907
(I0
(lp2908
I268
atp2909
s(I4
I71
tp2910
(I0
(lp2911
I637
atp2912
s(I1
I67
tp2913
(I0
(lp2914
I556
atp2915
s(I2
I115
tp2916
(I0
(lp2917
I321
atp2918
s(I8
I2
tp2919
(I0
(lp2920
I57
atp2921
s(I7
I58
tp2922
(I0
(lp2923
I792
atp2924
s(I0
I118
tp2925
(I0
(lp2926
I430
atp2927
s(I9
I3
tp2928
(I0
(lp2929
I63
atp2930
s(I5
I77
tp2931
(I0
(lp2932
I162
atp2933
s(I3
I85
tp2934
(I0
(lp2935
I274
atp2936
s(I4
I109
tp2937
(I0
(lp2938
I223
atp2939
s(I1
I101
tp2940
(I0
(lp2941
I402
atp2942
s(I2
I109
tp2943
(I0
(lp2944
I327
atp2945
s(I0
I102
tp2946
(I0
(lp2947
I446
atp2948
s(I0
I30
tp2949
(I0
(lp2950
I518
atp2951
s(I5
I87
tp2952
(I0
(lp2953
I172
atp2954
s(I3
I123
tp2955
(I0
(lp2956
I312
atp2957
s(I1
I31
tp2958
(I0
(lp2959
I520
atp2960
s(I0
I52
tp2961
(I0
(lp2962
I496
atp2963
s(I5
I113
tp2964
(I0
(lp2965
I198
atp2966
s(I1
I49
tp2967
(I0
(lp2968
I538
atp2969
s(I7
I44
tp2970
(I0
(lp2971
I778
atp2972
s(I2
I54
tp2973
(I0
(lp2974
I570
atp2975
s(I0
I42
tp2976
(I0
(lp2977
I506
atp2978
s(I3
I39
tp2979
(I0
(lp2980
I604
atp2981
s(I1
I43
tp2982
(I0
(lp2983
I532
atp2984
s(I6
I16
tp2985
(I0
(lp2986
I717
atp2987
s(I2
I80
tp2988
(I0
(lp2989
I356
atp2990
s(I8
I35
tp2991
(I0
(lp2992
I24
atp2993
s(I7
I21
tp2994
(I0
(lp2995
I755
atp2996
s(I5
I37
tp2997
(I0
(lp2998
I122
atp2999
s(I9
I34
tp3000
(I0
(lp3001
I94
atp3002
s(I6
I42
tp3003
(I0
(lp3004
I691
atp3005
s(I4
I78
tp3006
(I0
(lp3007
I254
atp3008
s(I1
I68
tp3009
(I0
(lp3010
I369
atp3011
s(I2
I74
tp3012
(I0
(lp3013
I362
atp3014
s(I8
I9
tp3015
(I0
(lp3016
I50
atp3017
s(I7
I51
tp3018
(I0
(lp3019
I785
atp3020
s(I9
I4
tp3021
(I0
(lp3022
I64
atp3023
s(I7
I11
tp3024
(I0
(lp3025
I745
atp3026
s(I3
I90
tp3027
(I0
(lp3028
I279
atp3029
s(I7
I57
tp3030
(I0
(lp3031
I791
atp3032
s(I2
I100
tp3033
(I0
(lp3034
I336
atp3035
s(I5
I80
tp3036
(I0
(lp3037
I165
atp3038
s(I3
I96
tp3039
(I0
(lp3040
I285
atp3041
s(I4
I114
tp3042
(I0
(lp3043
I218
atp3044
s(I5
I122
tp3045
(I0
(lp3046
I207
atp3047
s(I2
I49
tp3048
(I0
(lp3049
I575
atp3050
s(I0
I33
tp3051
(I0
(lp3052
I515
atp3053
s(I7
I20
tp3054
(I0
(lp3055
I754
atp3056
s(I3
I44
tp3057
(I0
(lp3058
I609
atp3059
s(I1
I44
tp3060
(I0
(lp3061
I533
atp3062
s(I6
I11
tp3063
(I0
(lp3064
I722
atp3065
s(I4
I47
tp3066
(I0
(lp3067
I661
atp3068
s(I2
I43
tp3069
(I0
(lp3070
I581
atp3071
s(I8
I42
tp3072
(I0
(lp3073
I17
atp3074
s(I7
I18
tp3075
(I0
(lp3076
I752
atp3077
s(I5
I46
tp3078
(I0
(lp3079
I131
atp3080
s(I3
I50
tp3081
(I0
(lp3082
I615
atp3083
s(I9
I43
tp3084
(I0
(lp3085
I103
atp3086
s(I6
I45
tp3087
(I0
(lp3088
I688
atp3089
s(I4
I53
tp3090
(I0
(lp3091
I655
atp3092
s(I1
I93
tp3093
(I0
(lp3094
I394
atp3095
s(I2
I69
tp3096
(I0
(lp3097
I367
atp3098
s(I8
I48
tp3099
(I0
(lp3100
I11
atp3101
s(I7
I40
tp3102
(I0
(lp3103
I774
atp3104
s(I9
I13
tp3105
(I0
(lp3106
I73
atp3107
s(I3
I67
tp3108
(I0
(lp3109
I632
atp3110
s(I4
I83
tp3111
(I0
(lp3112
I249
atp3113
s(I1
I119
tp3114
(I0
(lp3115
I420
atp3116
s(I8
I22
tp3117
(I0
(lp3118
I37
atp3119
s(I7
I33
tp3120
(I0
(lp3121
I767
atp3122
s(I9
I23
tp3123
(I0
(lp3124
I83
atp3125
s(I5
I89
tp3126
(I0
(lp3127
I174
atp3128
s(I3
I105
tp3129
(I0
(lp3130
I294
atp3131
s(I4
I121
tp3132
(I0
(lp3133
I211
atp3134
s(I1
I105
tp3135
(I0
(lp3136
I406
atp3137
s(I5
I99
tp3138
(I0
(lp3139
I184
atp3140
s(I0
I56
tp3141
(I0
(lp3142
I492
atp3143
s(I1
I37
tp3144
(I0
(lp3145
I526
atp3146
s(I6
I2
tp3147
(I0
(lp3148
I731
atp3149
s(I7
I50
tp3150
(I0
(lp3151
I784
atp3152
s(I2
I34
tp3153
(I0
(lp3154
I590
atp3155
s(I0
I94
tp3156
(I0
(lp3157
I454
atp3158
s(I3
I59
tp3159
(I0
(lp3160
I624
atp3161
s(I9
I44
tp3162
(I0
(lp3163
I104
atp3164
s(I6
I36
tp3165
(I0
(lp3166
I697
atp3167
s(I4
I60
tp3168
(I0
(lp3169
I648
atp3170
s(I1
I86
tp3171
(I0
(lp3172
I387
atp3173
s(I2
I92
tp3174
(I0
(lp3175
I344
atp3176
s(I8
I55
tp3177
(I0
(lp3178
I4
atp3179
s(I0
I116
tp3180
(I0
(lp3181
I432
atp3182
s(I5
I49
tp3183
(I0
(lp3184
I134
atp3185
s(I9
I54
tp3186
(I0
(lp3187
I114
atp3188
s(I3
I72
tp3189
(I0
(lp3190
I261
atp3191
s(I4
I90
tp3192
(I0
(lp3193
I242
atp3194
s(I1
I72
tp3195
(I0
(lp3196
I373
atp3197
s(I2
I118
tp3198
(I0
(lp3199
I318
atp3200
s(I8
I29
tp3201
(I0
(lp3202
I30
atp3203
s(I0
I106
tp3204
(I0
(lp3205
I442
atp3206
s(I9
I24
tp3207
(I0
(lp3208
I84
atp3209
s(I0
I92
tp3210
(I0
(lp3211
I456
atp3212
s(I5
I66
tp3213
(I0
(lp3214
I151
atp3215
s(I3
I110
tp3216
(I0
(lp3217
I299
atp3218
s(I4
I96
tp3219
(I0
(lp3220
I236
atp3221
s(I1
I98
tp3222
(I0
(lp3223
I399
atp3224
s(I5
I108
tp3225
(I0
(lp3226
I193
atp3227
s(I3
I116
tp3228
(I0
(lp3229
I305
atp3230
s(I0
I63
tp3231
(I0
(lp3232
I485
atp3233
s(I5
I118
tp3234
(I0
(lp3235
I203
atp3236
s(I1
I62
tp3237
(I0
(lp3238
I551
atp3239
s(I6
I5
tp3240
(I0
(lp3241
I728
atp3242
s(I2
I61
tp3243
(I0
(lp3244
I563
atp3245
s(I0
I85
tp3246
(I0
(lp3247
I463
atp3248
s(I7
I26
tp3249
(I0
(lp3250
I760
atp3251
s(I3
I32
tp3252
(I0
(lp3253
I597
atp3254
s(I6
I31
tp3255
(I0
(lp3256
I702
atp3257
s(I4
I59
tp3258
(I0
(lp3259
I649
atp3260
s(I2
I87
tp3261
(I0
(lp3262
I349
atp3263
s(I0
I75
tp3264
(I0
(lp3265
I473
atp3266
s(I5
I58
tp3267
(I0
(lp3268
I143
atp3269
s(I6
I49
tp3270
(I0
(lp3271
I684
atp3272
s(I4
I65
tp3273
(I0
(lp3274
I643
atp3275
s(I1
I65
tp3276
(I0
(lp3277
I554
atp3278
s(I2
I113
tp3279
(I0
(lp3280
I323
atp3281
s(I8
I4
tp3282
(I0
(lp3283
I55
atp3284
s(I0
I97
tp3285
(I0
(lp3286
I451
atp3287
s(I9
I1
tp3288
(I0
(lp3289
I61
atp3290
s(I5
I75
tp3291
(I0
(lp3292
I160
atp3293
s(I3
I87
tp3294
(I0
(lp3295
I276
atp3296
s(I4
I111
tp3297
(I0
(lp3298
I221
atp3299
s(I1
I123
tp3300
(I0
(lp3301
I424
atp3302
s(I2
I107
tp3303
(I0
(lp3304
I329
atp3305
s(I7
I39
tp3306
(I0
(lp3307
I773
atp3308
s(I5
I85
tp3309
(I0
(lp3310
I170
atp3311
s(I4
I117
tp3312
(I0
(lp3313
I215
atp3314
s(I0
I54
tp3315
(I0
(lp3316
I494
atp3317
s(I1
I55
tp3318
(I0
(lp3319
I544
atp3320
s(I2
I52
tp3321
(I0
(lp3322
I572
atp3323
s(I0
I44
tp3324
(I0
(lp3325
I504
atp3326
s(I3
I41
tp3327
(I0
(lp3328
I606
atp3329
s(I1
I41
tp3330
(I0
(lp3331
I530
atp3332
s(I6
I22
tp3333
(I0
(lp3334
I711
atp3335
s(I7
I48
tp3336
(I0
(lp3337
I782
atp3338
s(I2
I46
tp3339
(I0
(lp3340
I578
atp3341
s(I8
I37
tp3342
(I0
(lp3343
I22
atp3344
s(I0
I66
tp3345
(I0
(lp3346
I482
atp3347
s(I5
I35
tp3348
(I0
(lp3349
I120
atp3350
s(I9
I32
tp3351
(I0
(lp3352
I92
atp3353
s(I6
I40
tp3354
(I0
(lp3355
I693
atp3356
s(I4
I72
tp3357
(I0
(lp3358
I260
atp3359
s(I1
I90
tp3360
(I0
(lp3361
I391
atp3362
s(I2
I72
tp3363
(I0
(lp3364
I364
atp3365
s(I8
I11
tp3366
(I0
(lp3367
I48
atp3368
s(I0
I120
tp3369
(I0
(lp3370
I428
atp3371
s(I9
I10
tp3372
(I0
(lp3373
I70
atp3374
s(I3
I92
tp3375
(I0
(lp3376
I281
atp3377
s(I4
I86
tp3378
(I0
(lp3379
I246
atp3380
s(I2
I98
tp3381
(I0
(lp3382
I338
atp3383
s(I8
I17
tp3384
(I0
(lp3385
I42
atp3386
s(I0
I90
tp3387
(I0
(lp3388
I458
atp3389
s(I5
I94
tp3390
(I0
(lp3391
I179
atp3392
s(I3
I98
tp3393
(I0
(lp3394
I287
atp3395
s(I5
I120
tp3396
(I0
(lp3397
I205
atp3398
s(I7
I56
tp3399
(I0
(lp3400
I790
atp3401
s(I0
I35
tp3402
(I0
(lp3403
I513
atp3404
s(I3
I46
tp3405
(I0
(lp3406
I611
atp3407
s(I1
I34
tp3408
(I0
(lp3409
I523
atp3410
s(I6
I9
tp3411
(I0
(lp3412
I724
atp3413
s(I4
I41
tp3414
(I0
(lp3415
I667
atp3416
s(I2
I41
tp3417
(I0
(lp3418
I583
atp3419
s(I8
I44
tp3420
(I0
(lp3421
I15
atp3422
s(I0
I89
tp3423
(I0
(lp3424
I459
atp3425
s(I7
I24
tp3426
(I0
(lp3427
I758
atp3428
s(I5
I44
tp3429
(I0
(lp3430
I129
atp3431
s(I3
I52
tp3432
(I0
(lp3433
I617
atp3434
s(I9
I41
tp3435
(I0
(lp3436
I101
atp3437
s(I6
I35
tp3438
(I0
(lp3439
I698
atp3440
s(I4
I55
tp3441
(I0
(lp3442
I653
atp3443
s(I1
I83
tp3444
(I0
(lp3445
I384
atp3446
s(I2
I67
tp3447
(I0
(lp3448
I557
atp3449
s(I8
I50
tp3450
(I0
(lp3451
I9
atp3452
s(I7
I42
tp3453
(I0
(lp3454
I776
atp3455
s(I5
I54
tp3456
(I0
(lp3457
I139
atp3458
s(I9
I51
tp3459
(I0
(lp3460
I111
atp3461
s(I3
I69
tp3462
(I0
(lp3463
I634
atp3464
s(I4
I93
tp3465
(I0
(lp3466
I239
atp3467
s(I1
I117
tp3468
(I0
(lp3469
I418
atp3470
s(I8
I24
tp3471
(I0
(lp3472
I35
atp3473
s(I9
I21
tp3474
(I0
(lp3475
I81
atp3476
s(I5
I71
tp3477
(I0
(lp3478
I156
atp3479
s(I3
I107
tp3480
(I0
(lp3481
I296
atp3482
s(I4
I123
tp3483
(I0
(lp3484
I209
atp3485
s(I1
I111
tp3486
(I0
(lp3487
I412
atp3488
s(I7
I37
tp3489
(I0
(lp3490
I771
atp3491
s(I5
I97
tp3492
(I0
(lp3493
I182
atp3494
s(I3
I113
tp3495
(I0
(lp3496
I302
atp3497
s(I0
I58
tp3498
(I0
(lp3499
I490
atp3500
s(I1
I59
tp3501
(I0
(lp3502
I548
atp3503
s(I6
I0
tp3504
(I0
(lp3505
I733
atp3506
s(I2
I32
tp3507
(I0
(lp3508
I592
atp3509
s(I0
I80
tp3510
(I0
(lp3511
I468
atp3512
s(I3
I61
tp3513
(I0
(lp3514
I626
atp3515
s(I7
I0
tp3516
(I0
(lp3517
I734
atp3518
s(I6
I26
tp3519
(I0
(lp3520
I707
atp3521
s(I4
I62
tp3522
(I0
(lp3523
I646
atp3524
s(I1
I84
tp3525
(I0
(lp3526
I385
atp3527
s(I2
I90
tp3528
(I0
(lp3529
I346
atp3530
s(I8
I57
tp3531
(I0
(lp3532
I2
atp3533
s(I7
I35
tp3534
(I0
(lp3535
I769
atp3536
s(I5
I63
tp3537
(I0
(lp3538
I148
atp3539
s(I9
I52
tp3540
(I0
(lp3541
I112
atp3542
s(I3
I74
tp3543
(I0
(lp3544
I263
atp3545
s(I4
I68
tp3546
(I0
(lp3547
I640
atp3548
s(I1
I78
tp3549
(I0
(lp3550
I379
atp3551
s(I2
I116
tp3552
(I0
(lp3553
I320
atp3554
s(I8
I31
tp3555
(I0
(lp3556
I28
atp3557
s(I0
I108
tp3558
(I0
(lp3559
I440
atp3560
s(I9
I30
tp3561
(I0
(lp3562
I90
atp3563
s(I5
I64
tp3564
(I0
(lp3565
I149
atp3566
s(I3
I80
tp3567
(I0
(lp3568
I269
atp3569
s(I4
I98
tp3570
(I0
(lp3571
I234
atp3572
s(I1
I96
tp3573
(I0
(lp3574
I397
atp3575
s(I2
I110
tp3576
(I0
(lp3577
I326
atp3578
s(I7
I13
tp3579
(I0
(lp3580
I747
atp3581
s(I5
I106
tp3582
(I0
(lp3583
I191
atp3584
s(I3
I118
tp3585
(I0
(lp3586
I307
atp3587
s(I0
I49
tp3588
(I0
(lp3589
I499
atp3590
s(I5
I116
tp3591
(I0
(lp3592
I201
atp3593
s(I1
I60
tp3594
(I0
(lp3595
I549
atp3596
s(I2
I59
tp3597
(I0
(lp3598
I565
atp3599
s(I0
I87
tp3600
(I0
(lp3601
I461
atp3602
s(I3
I34
tp3603
(I0
(lp3604
I599
atp3605
s(I6
I29
tp3606
(I0
(lp3607
I704
atp3608
s(I4
I37
tp3609
(I0
(lp3610
I671
atp3611
s(I2
I85
tp3612
(I0
(lp3613
I351
atp3614
s(I8
I32
tp3615
(I0
(lp3616
I27
atp3617
s(I0
I77
tp3618
(I0
(lp3619
I471
atp3620
s(I7
I30
tp3621
(I0
(lp3622
I764
atp3623
s(I5
I56
tp3624
(I0
(lp3625
I141
atp3626
s(I6
I55
tp3627
(I0
(lp3628
I678
atp3629
s(I4
I67
tp3630
(I0
(lp3631
I641
atp3632
s(I1
I71
tp3633
(I0
(lp3634
I372
atp3635
s(I2
I79
tp3636
(I0
(lp3637
I357
atp3638
s(I8
I6
tp3639
(I0
(lp3640
I53
atp3641
s(I7
I54
tp3642
(I0
(lp3643
I788
atp3644
s(I9
I7
tp3645
(I0
(lp3646
I67
atp3647
s(I5
I73
tp3648
(I0
(lp3649
I158
atp3650
s(I3
I89
tp3651
(I0
(lp3652
I278
atp3653
s(I4
I105
tp3654
(I0
(lp3655
I227
atp3656
s(I1
I121
tp3657
(I0
(lp3658
I422
atp3659
s(I2
I105
tp3660
(I0
(lp3661
I331
atp3662
s(I5
I83
tp3663
(I0
(lp3664
I168
atp3665
s(I4
I119
tp3666
(I0
(lp3667
I213
atp3668
s(I1
I53
tp3669
(I0
(lp3670
I542
atp3671
s(I2
I50
tp3672
(I0
(lp3673
I574
atp3674
s(I0
I46
tp3675
(I0
(lp3676
I502
atp3677
s(I3
I43
tp3678
(I0
(lp3679
I608
atp3680
s(I1
I47
tp3681
(I0
(lp3682
I536
atp3683
s(I6
I20
tp3684
(I0
(lp3685
I713
atp3686
s(I4
I44
tp3687
(I0
(lp3688
I664
atp3689
s(I2
I44
tp3690
(I0
(lp3691
I580
atp3692
s(I8
I39
tp3693
(I0
(lp3694
I20
atp3695
s(I7
I17
tp3696
(I0
(lp3697
I751
atp3698
s(I3
I49
tp3699
(I0
(lp3700
I614
atp3701
s(I9
I38
tp3702
(I0
(lp3703
I98
atp3704
s(I0
I83
tp3705
(I0
(lp3706
I465
atp3707
s(I6
I46
tp3708
(I0
(lp3709
I687
atp3710
s(I7
I52
tp3711
(I0
(lp3712
I786
atp3713
s(I1
I88
tp3714
(I0
(lp3715
I389
atp3716
s(I2
I70
tp3717
(I0
(lp3718
I366
atp3719
s(I8
I13
tp3720
(I0
(lp3721
I46
atp3722
s(I0
I122
tp3723
(I0
(lp3724
I426
atp3725
s(I9
I8
tp3726
(I0
(lp3727
I68
atp3728
s(I3
I94
tp3729
(I0
(lp3730
I283
atp3731
s(I4
I80
tp3732
(I0
(lp3733
I252
atp3734
s(I1
I114
tp3735
(I0
(lp3736
I415
atp3737
s(I2
I96
tp3738
(I0
(lp3739
I340
atp3740
s(I8
I19
tp3741
(I0
(lp3742
I40
atp3743
s(I9
I18
tp3744
(I0
(lp3745
I78
atp3746
s(I5
I92
tp3747
(I0
(lp3748
I177
atp3749
s(I3
I100
tp3750
(I0
(lp3751
I289
atp3752
s(I7
I19
tp3753
(I0
(lp3754
I753
atp3755
s(I5
I102
tp3756
(I0
(lp3757
I187
atp3758
s(I0
I37
tp3759
(I0
(lp3760
I511
atp3761
s(I1
I32
tp3762
(I0
(lp3763
I521
atp3764
s(I6
I15
tp3765
(I0
(lp3766
I718
atp3767
s(I4
I43
tp3768
(I0
(lp3769
I665
atp3770
s(I2
I39
tp3771
(I0
(lp3772
I585
atp3773
s(I8
I46
tp3774
(I0
(lp3775
I13
atp3776
s(I0
I91
tp3777
(I0
(lp3778
I457
atp3779
s(I5
I42
tp3780
(I0
(lp3781
I127
atp3782
s(I3
I54
tp3783
(I0
(lp3784
I619
atp3785
s(I9
I47
tp3786
(I0
(lp3787
I107
atp3788
s(I6
I33
tp3789
(I0
(lp3790
I700
atp3791
s(I4
I49
tp3792
(I0
(lp3793
I659
atp3794
s(I1
I81
tp3795
(I0
(lp3796
I382
atp3797
s(I2
I65
tp3798
(I0
(lp3799
I559
atp3800
s(I8
I52
tp3801
(I0
(lp3802
I7
atp3803
s(I0
I113
tp3804
(I0
(lp3805
I435
atp3806
s(I0
I73
tp3807
(I0
(lp3808
I475
atp3809
s(I5
I52
tp3810
(I0
(lp3811
I137
atp3812
s(I9
I49
tp3813
(I0
(lp3814
I109
atp3815
s(I6
I59
tp3816
(I0
(lp3817
I674
atp3818
s(I3
I71
tp3819
(I0
(lp3820
I636
atp3821
s(I4
I95
tp3822
(I0
(lp3823
I237
atp3824
s(I1
I75
tp3825
(I0
(lp3826
I376
atp3827
s(I2
I123
tp3828
(I0
(lp3829
I313
atp3830
s(I8
I26
tp3831
(I0
(lp3832
I33
atp3833
s(I9
I27
tp3834
(I0
(lp3835
I87
atp3836
s(I5
I69
tp3837
(I0
(lp3838
I154
atp3839
s(I3
I109
tp3840
(I0
(lp3841
I298
atp3842
s(I4
I101
tp3843
(I0
(lp3844
I231
atp3845
s(I1
I109
tp3846
(I0
(lp3847
I410
atp3848
s(I5
I111
tp3849
(I0
(lp3850
I196
atp3851
s(I3
I115
tp3852
(I0
(lp3853
I304
atp3854
s(I0
I60
tp3855
(I0
(lp3856
I488
atp3857
s(I1
I57
tp3858
(I0
(lp3859
I546
atp3860
s(I6
I6
tp3861
(I0
(lp3862
I727
atp3863
s(I2
I62
tp3864
(I0
(lp3865
I562
atp3866
s(I7
I7
tp3867
(I0
(lp3868
I741
atp3869
s(I3
I63
tp3870
(I0
(lp3871
I628
atp3872
s(I6
I24
tp3873
(I0
(lp3874
I709
atp3875
s(I4
I56
tp3876
(I0
(lp3877
I652
atp3878
s(I2
I88
tp3879
(I0
(lp3880
I348
atp3881
s(I8
I59
tp3882
(I0
(lp3883
I0
atp3884
s(I7
I29
tp3885
(I0
(lp3886
I763
atp3887
s(I5
I61
tp3888
(I0
(lp3889
I146
atp3890
s(I9
I58
tp3891
(I0
(lp3892
I118
atp3893
s(I0
I81
tp3894
(I0
(lp3895
I467
atp3896
s(I6
I50
tp3897
(I0
(lp3898
I683
atp3899
s(I3
I76
tp3900
(I0
(lp3901
I265
atp3902
s(I0
I111
tp3903
(I0
(lp3904
I437
atp3905
s(I1
I76
tp3906
(I0
(lp3907
I377
atp3908
s(I2
I114
tp3909
(I0
(lp3910
I322
atp3911
s(I8
I1
tp3912
(I0
(lp3913
I58
atp3914
s(I0
I110
tp3915
(I0
(lp3916
I438
atp3917
s(I9
I28
tp3918
(I0
(lp3919
I88
atp3920
s(I5
I78
tp3921
(I0
(lp3922
I163
atp3923
s(I3
I82
tp3924
(I0
(lp3925
I271
atp3926
s(I4
I108
tp3927
(I0
(lp3928
I224
atp3929
s(I1
I102
tp3930
(I0
(lp3931
I403
atp3932
s(I2
I108
tp3933
(I0
(lp3934
I328
atp3935
s(I5
I104
tp3936
(I0
(lp3937
I189
atp3938
s(I3
I120
tp3939
(I0
(lp3940
I309
atp3941
s(I2
I31
tp3942
(I0
(lp3943
I593
atp3944
s(I0
I51
tp3945
(I0
(lp3946
I497
atp3947
s(I0
I68
tp3948
(I0
(lp3949
I480
atp3950
s(I5
I114
tp3951
(I0
(lp3952
I199
atp3953
s(I4
I48
tp3954
(I0
(lp3955
I660
atp3956
s(I3
I30
tp3957
(I0
(lp3958
I595
atp3959
s(I1
I50
tp3960
(I0
(lp3961
I539
atp3962
s(I2
I57
tp3963
(I0
(lp3964
I567
atp3965
s(I0
I41
tp3966
(I0
(lp3967
I507
atp3968
s(I3
I36
tp3969
(I0
(lp3970
I601
atp3971
s(I6
I19
tp3972
(I0
(lp3973
I714
atp3974
s(I4
I39
tp3975
(I0
(lp3976
I669
atp3977
s(I2
I83
tp3978
(I0
(lp3979
I353
atp3980
s(I8
I34
tp3981
(I0
(lp3982
I25
atp3983
s(I0
I79
tp3984
(I0
(lp3985
I469
atp3986
s(I5
I38
tp3987
(I0
(lp3988
I123
atp3989
s(I9
I35
tp3990
(I0
(lp3991
I95
atp3992
s(I6
I53
tp3993
(I0
(lp3994
I680
atp3995
s(I4
I77
tp3996
(I0
(lp3997
I255
atp3998
s(I1
I69
tp3999
(I0
(lp4000
I370
atp4001
s(I2
I77
tp4002
(I0
(lp4003
I359
atp4004
s(I8
I8
tp4005
(I0
(lp4006
I51
atp4007
s(I0
I101
tp4008
(I0
(lp4009
I447
atp4010
s(I7
I34
tp4011
(I0
(lp4012
I768
atp4013
s(I9
I5
tp4014
(I0
(lp4015
I65
atp4016
s(I3
I91
tp4017
(I0
(lp4018
I280
atp4019
s(I4
I107
tp4020
(I0
(lp4021
I225
atp4022
s(I2
I103
tp4023
(I0
(lp4024
I333
atp4025
s(I4
I74
tp4026
(I0
(lp4027
I258
atp4028
s(I5
I81
tp4029
(I0
(lp4030
I166
atp4031
s(I3
I97
tp4032
(I0
(lp4033
I286
atp4034
s(I4
I113
tp4035
(I0
(lp4036
I219
atp4037
s(I5
I123
tp4038
(I0
(lp4039
I208
atp4040
s(I7
I47
tp4041
(I0
(lp4042
I781
atp4043
s(I2
I48
tp4044
(I0
(lp4045
I576
atp4046
s(I0
I32
tp4047
(I0
(lp4048
I516
atp4049
s(I3
I45
tp4050
(I0
(lp4051
I610
atp4052
s(I1
I45
tp4053
(I0
(lp4054
I534
atp4055
s(I6
I10
tp4056
(I0
(lp4057
I723
atp4058
s(I4
I46
tp4059
(I0
(lp4060
I662
atp4061
s(I2
I42
tp4062
(I0
(lp4063
I582
atp4064
s(I8
I41
tp4065
(I0
(lp4066
I18
atp4067
s(I0
I70
tp4068
(I0
(lp4069
I478
atp4070
s(I5
I47
tp4071
(I0
(lp4072
I132
atp4073
s(I3
I51
tp4074
(I0
(lp4075
I616
atp4076
s(I9
I36
tp4077
(I0
(lp4078
I96
atp4079
s(I6
I44
tp4080
(I0
(lp4081
I689
atp4082
s(I4
I52
tp4083
(I0
(lp4084
I656
atp4085
s(I1
I94
tp4086
(I0
(lp4087
I395
atp4088
s(I2
I68
tp4089
(I0
(lp4090
I368
atp4091
s(I8
I15
tp4092
(I0
(lp4093
I44
atp4094
s(I7
I41
tp4095
(I0
(lp4096
I775
atp4097
s(I9
I14
tp4098
(I0
(lp4099
I74
atp4100
s(I7
I10
tp4101
(I0
(lp4102
I744
atp4103
s(I3
I64
tp4104
(I0
(lp4105
I629
atp4106
s(I4
I82
tp4107
(I0
(lp4108
I250
atp4109
s(I1
I112
tp4110
(I0
(lp4111
I413
atp4112
s(I8
I21
tp4113
(I0
(lp4114
I38
atp4115
s(I9
I16
tp4116
(I0
(lp4117
I76
atp4118
s(I5
I90
tp4119
(I0
(lp4120
I175
atp4121
s(I3
I102
tp4122
(I0
(lp4123
I291
atp4124
s(I4
I120
tp4125
(I0
(lp4126
I212
atp4127
s(I1
I106
tp4128
(I0
(lp4129
I407
atp4130
s(I5
I100
tp4131
(I0
(lp4132
I185
atp4133
s(I0
I39
tp4134
(I0
(lp4135
I509
atp4136
s(I7
I23
tp4137
(I0
(lp4138
I757
atp4139
s(I1
I38
tp4140
(I0
(lp4141
I527
atp4142
s(I6
I13
tp4143
(I0
(lp4144
I720
atp4145
s(I2
I37
tp4146
(I0
(lp4147
I587
atp4148
s(I7
I8
tp4149
(I0
(lp4150
I742
atp4151
s(I5
I40
tp4152
(I0
(lp4153
I125
atp4154
s(I0
I48
tp4155
(I0
(lp4156
I500
atp4157
s(I3
I56
tp4158
(I0
(lp4159
I621
atp4160
s(I9
I45
tp4161
(I0
(lp4162
I105
atp4163
s(I6
I39
tp4164
(I0
(lp4165
I694
atp4166
s(I4
I51
tp4167
(I0
(lp4168
I657
atp4169
s(I1
I87
tp4170
(I0
(lp4171
I388
atp4172
s(I2
I95
tp4173
(I0
(lp4174
I341
atp4175
s(I8
I54
tp4176
(I0
(lp4177
I5
atp4178
s(I7
I38
tp4179
(I0
(lp4180
I772
atp4181
s(I5
I50
tp4182
(I0
(lp4183
I135
atp4184
s(I9
I55
tp4185
(I0
(lp4186
I115
atp4187
s(I6
I57
tp4188
(I0
(lp4189
I676
atp4190
s(I3
I73
tp4191
(I0
(lp4192
I262
atp4193
s(I4
I89
tp4194
(I0
(lp4195
I243
atp4196
s(I1
I73
tp4197
(I0
(lp4198
I374
atp4199
s(I2
I121
tp4200
(I0
(lp4201
I315
atp4202
s(I8
I28
tp4203
(I0
(lp4204
I31
atp4205
s(I0
I105
tp4206
(I0
(lp4207
I443
atp4208
s(I7
I32
tp4209
(I0
(lp4210
I766
atp4211
s(I9
I25
tp4212
(I0
(lp4213
I85
atp4214
s(I5
I67
tp4215
(I0
(lp4216
I152
atp4217
s(I3
I111
tp4218
(I0
(lp4219
I300
atp4220
s(I4
I103
tp4221
(I0
(lp4222
I229
atp4223
s(I1
I99
tp4224
(I0
(lp4225
I400
atp4226
s(I5
I109
tp4227
(I0
(lp4228
I194
atp4229
s(I3
I117
tp4230
(I0
(lp4231
I306
atp4232
s(I0
I99
tp4233
(I0
(lp4234
I449
atp4235
s(I0
I62
tp4236
(I0
(lp4237
I486
atp4238
s(I5
I119
tp4239
(I0
(lp4240
I204
atp4241
s(I1
I63
tp4242
(I0
(lp4243
I552
atp4244
s(I6
I4
tp4245
(I0
(lp4246
I729
atp4247
s(I7
I45
tp4248
(I0
(lp4249
I779
atp4250
s(I2
I60
tp4251
(I0
(lp4252
I564
atp4253
s(I0
I84
tp4254
(I0
(lp4255
I464
atp4256
s(I3
I33
tp4257
(I0
(lp4258
I598
atp4259
s(I6
I30
tp4260
(I0
(lp4261
I703
atp4262
s(I4
I58
tp4263
(I0
(lp4264
I650
atp4265
s(I2
I86
tp4266
(I0
(lp4267
I350
atp4268
s(I0
I74
tp4269
(I0
(lp4270
I474
atp4271
s(I5
I59
tp4272
(I0
(lp4273
I144
atp4274
s(I9
I56
tp4275
(I0
(lp4276
I116
atp4277
s(I6
I48
tp4278
(I0
(lp4279
I685
atp4280
s(I3
I78
tp4281
(I0
(lp4282
I267
atp4283
s(I4
I64
tp4284
(I0
(lp4285
I644
atp4286
s(I1
I66
tp4287
(I0
(lp4288
I555
atp4289
s(I2
I112
tp4290
(I0
(lp4291
I324
atp4292
s(I8
I3
tp4293
(I0
(lp4294
I56
atp4295
s(I0
I96
tp4296
(I0
(lp4297
I452
atp4298
s(I9
I2
tp4299
(I0
(lp4300
I62
atp4301
s(I0
I93
tp4302
(I0
(lp4303
I455
atp4304
s(I5
I76
tp4305
(I0
(lp4306
I161
atp4307
s(I3
I84
tp4308
(I0
(lp4309
I273
atp4310
s(I4
I110
tp4311
(I0
(lp4312
I222
atp4313
s(I1
I100
tp4314
(I0
(lp4315
I401
atp4316
s(I2
I106
tp4317
(I0
(lp4318
I330
atp4319
s(I0
I31
tp4320
(I0
(lp4321
I517
atp4322
s(I5
I86
tp4323
(I0
(lp4324
I171
atp4325
s(I3
I122
tp4326
(I0
(lp4327
I311
atp4328
s(I4
I116
tp4329
(I0
(lp4330
I216
atp4331
s(I1
I30
tp4332
(I0
(lp4333
I519
atp4334
s(I0
I53
tp4335
(I0
(lp4336
I495
atp4337
s(I5
I112
tp4338
(I0
(lp4339
I197
atp4340
s(I1
I48
tp4341
(I0
(lp4342
I537
atp4343
s(I2
I55
tp4344
(I0
(lp4345
I569
atp4346
s(I0
I43
tp4347
(I0
(lp4348
I505
atp4349
s(I0
I64
tp4350
(I0
(lp4351
I484
atp4352
s(I3
I38
tp4353
(I0
(lp4354
I603
atp4355
s(I1
I42
tp4356
(I0
(lp4357
I531
atp4358
s(I6
I17
tp4359
(I0
(lp4360
I716
atp4361
s(I2
I81
tp4362
(I0
(lp4363
I355
atp4364
s(I8
I36
tp4365
(I0
(lp4366
I23
atp4367
s(I0
I65
tp4368
(I0
(lp4369
I483
atp4370
s(I5
I36
tp4371
(I0
(lp4372
I121
atp4373
s(I4
I70
tp4374
(I0
(lp4375
I638
atp4376
s(I9
I33
tp4377
(I0
(lp4378
I93
atp4379
s(I6
I43
tp4380
(I0
(lp4381
I690
atp4382
s(I4
I79
tp4383
(I0
(lp4384
I253
atp4385
s(I1
I91
tp4386
(I0
(lp4387
I392
atp4388
s(I2
I75
tp4389
(I0
(lp4390
I361
atp4391
s(I8
I10
tp4392
(I0
(lp4393
I49
atp4394
s(I0
I103
tp4395
(I0
(lp4396
I445
atp4397
s(I9
I11
tp4398
(I0
(lp4399
I71
atp4400
s(I3
I93
tp4401
(I0
(lp4402
I282
atp4403
s(I4
I85
tp4404
(I0
(lp4405
I247
atp4406
s(I2
I101
tp4407
(I0
(lp4408
I335
atp4409
s(I8
I16
tp4410
(I0
(lp4411
I43
atp4412
s(I0
I115
tp4413
(I0
(lp4414
I433
atp4415
s(I5
I95
tp4416
(I0
(lp4417
I180
atp4418
s(I3
I99
tp4419
(I0
(lp4420
I288
atp4421
s(I4
I115
tp4422
(I0
(lp4423
I217
atp4424
s(I5
I121
tp4425
(I0
(lp4426
I206
atp4427
s(I0
I34
tp4428
(I0
(lp4429
I514
atp4430
s(I3
I47
tp4431
(I0
(lp4432
I612
atp4433
s(I1
I35
tp4434
(I0
(lp4435
I524
atp4436
s(I6
I8
tp4437
(I0
(lp4438
I725
atp4439
s(I4
I40
tp4440
(I0
(lp4441
I668
atp4442
s(I2
I40
tp4443
(I0
(lp4444
I584
atp4445
s(I8
I43
tp4446
(I0
(lp4447
I16
atp4448
s(I0
I88
tp4449
(I0
(lp4450
I460
atp4451
s(I5
I45
tp4452
(I0
(lp4453
I130
atp4454
s(I7
I2
tp4455
(I0
(lp4456
I736
atp4457
s(I3
I53
tp4458
(I0
(lp4459
I618
atp4460
s(I9
I42
tp4461
(I0
(lp4462
I102
atp4463
s(I6
I34
tp4464
(I0
(lp4465
I699
atp4466
s(I4
I54
tp4467
(I0
(lp4468
I654
atp4469
s(I1
I92
tp4470
(I0
(lp4471
I393
atp4472
s(I2
I66
tp4473
(I0
(lp4474
I558
atp4475
s(I8
I49
tp4476
(I0
(lp4477
I10
atp4478
s(I7
I43
tp4479
(I0
(lp4480
I777
atp4481
s(I5
I55
tp4482
(I0
(lp4483
I140
atp4484
s(I9
I12
tp4485
(I0
(lp4486
I72
atp4487
s(I3
I66
tp4488
(I0
(lp4489
I631
atp4490
s(I4
I92
tp4491
(I0
(lp4492
I240
atp4493
s(I1
I118
tp4494
(I0
(lp4495
I419
atp4496
s(I8
I23
tp4497
(I0
(lp4498
I36
atp4499
s(I9
I22
tp4500
(I0
(lp4501
I82
atp4502
s(I7
I14
tp4503
(I0
(lp4504
I748
atp4505
s(I5
I88
tp4506
(I0
(lp4507
I173
atp4508
s(I3
I104
tp4509
(I0
(lp4510
I293
atp4511
s(I4
I122
tp4512
(I0
(lp4513
I210
atp4514
s(I1
I104
tp4515
(I0
(lp4516
I405
atp4517
s(I5
I98
tp4518
(I0
(lp4519
I183
atp4520
s(I4
I84
tp4521
(I0
(lp4522
I248
atp4523
s(I0
I57
tp4524
(I0
(lp4525
I491
atp4526
s(I1
I36
tp4527
(I0
(lp4528
I525
atp4529
s(I6
I3
tp4530
(I0
(lp4531
I730
atp4532
s(I0
I100
tp4533
(I0
(lp4534
I448
atp4535
s(I2
I35
tp4536
(I0
(lp4537
I589
atp4538
s(I0
I95
tp4539
(I0
(lp4540
I453
atp4541
s(I0
I78
tp4542
(I0
(lp4543
I470
atp4544
s(I3
I58
tp4545
(I0
(lp4546
I623
atp4547
s(I6
I37
tp4548
(I0
(lp4549
I696
atp4550
s(I4
I61
tp4551
(I0
(lp4552
I647
atp4553
s(I1
I85
tp4554
(I0
(lp4555
I386
atp4556
s(I2
I93
tp4557
(I0
(lp4558
I343
atp4559
s(I8
I56
tp4560
(I0
(lp4561
I3
atp4562
s(I0
I117
tp4563
(I0
(lp4564
I431
atp4565
s(I5
I48
tp4566
(I0
(lp4567
I133
atp4568
s(I9
I53
tp4569
(I0
(lp4570
I113
atp4571
s(I3
I75
tp4572
(I0
(lp4573
I264
atp4574
s(I4
I91
tp4575
(I0
(lp4576
I241
atp4577
s(I1
I79
tp4578
(I0
(lp4579
I380
atp4580
s(I2
I119
tp4581
(I0
(lp4582
I317
atp4583
s(I8
I30
tp4584
(I0
(lp4585
I29
atp4586
s(I0
I107
tp4587
(I0
(lp4588
I441
atp4589
s(I9
I31
tp4590
(I0
(lp4591
I91
atp4592
s(I5
I65
tp4593
(I0
(lp4594
I150
atp4595
s(I3
I81
tp4596
(I0
(lp4597
I270
atp4598
s(I4
I97
tp4599
(I0
(lp4600
I235
atp4601
s(I1
I97
tp4602
(I0
(lp4603
I398
atp4604
s(I7
I36
tp4605
(I0
(lp4606
I770
atp4607
s(I5
I107
tp4608
(I0
(lp4609
I192
atp4610
s(I3
I119
tp4611
(I0
(lp4612
I308
atp4613
s(I4
I76
tp4614
(I0
(lp4615
I256
atp4616
s(I5
I117
tp4617
(I0
(lp4618
I202
atp4619
s(I1
I61
tp4620
(I0
(lp4621
I550
atp4622
s(I2
I58
tp4623
(I0
(lp4624
I566
atp4625
ssb(dp4626
I0
(I17
I9
tp4627
sI1
(I16
I9
tp4628
sI2
(I16
I10
tp4629
sI3
(I16
I11
tp4630
sI4
(I17
I11
tp4631
sI5
(I17
I10
tp4632
sI6
(I14
I4
tp4633
sI7
(I13
I4
tp4634
sI8
(I15
I5
tp4635
sI9
(I14
I5
tp4636
stp4637
.