(ccopy_reg
_reconstructor
p0
(corigami_utils
vhelix_vbase_to_nucleotide
p1
c__builtin__
object
p2
Ntp3
Rp4
(dp5
S'strand_count'
p6
I0
sS'nuc_count'
p7
I0
sS'_stap'
p8
(dp9
(I0
I86
tp10
(I8
(lp11
I1045
atp12
s(I4
I135
tp13
(I9
(lp14
I1068
atp15
s(I3
I35
tp16
(I14
(lp17
I1332
atp18
s(I4
I36
tp19
(I14
(lp20
I1334
atp21
s(I2
I84
tp22
(I13
(lp23
I1270
atp24
s(I0
I76
tp25
(I7
(lp26
I971
atp27
s(I5
I57
tp28
(I6
(lp29
I935
atp30
s(I4
I66
tp31
(I16
(lp32
I1406
atp33
s(I1
I64
tp34
(I7
(lp35
I984
atp36
s(I2
I78
tp37
(I13
(lp38
I1264
atp39
s(I0
I98
tp40
(I9
(lp41
I1107
atp42
s(I5
I74
tp43
(I16
(lp44
I1391
atp45
s(I3
I86
tp46
(I13
(lp47
I1281
atp48
s(I4
I104
tp49
(I9
(lp50
I1085
atp51
s(I2
I104
tp52
(I10
(lp53
I1156
atp54
s(I1
I133
tp55
(I8
(lp56
I1008
atp57
s(I5
I84
tp58
(I8
(lp59
I1056
atp60
s(I4
I118
tp61
(I15
(lp62
I1374
atp63
s(I0
I55
tp64
(I6
(lp65
I950
atp66
s(I1
I54
tp67
(I7
(lp68
I994
atp69
s(I3
I141
tp70
(I10
(lp71
I1114
atp72
s(I2
I53
tp73
(I12
(lp74
I1239
atp75
s(I0
I45
tp76
(I5
(lp77
I898
atp78
s(I4
I142
tp79
(I9
(lp80
I1075
atp81
s(I3
I40
tp82
(I14
(lp83
I1327
atp84
s(I1
I40
tp85
(I5
(lp86
I882
atp87
s(I4
I35
tp88
(I14
(lp89
I1333
atp90
s(I2
I47
tp91
(I14
(lp92
I1317
atp93
s(I0
I67
tp94
(I7
(lp95
I962
atp96
s(I4
I73
tp97
(I16
(lp98
I1413
atp99
s(I1
I89
tp100
(I8
(lp101
I1023
atp102
s(I2
I73
tp103
(I12
(lp104
I1259
atp105
s(I3
I95
tp106
(I10
(lp107
I1138
atp108
s(I4
I87
tp109
(I16
(lp110
I1427
atp111
s(I1
I115
tp112
(I11
(lp113
I1196
atp114
s(I2
I99
tp115
(I10
(lp116
I1151
atp117
s(I5
I93
tp118
(I9
(lp119
I1097
atp120
s(I3
I101
tp121
(I10
(lp122
I1132
atp123
s(I5
I103
tp124
(I9
(lp125
I1087
atp126
s(I0
I135
tp127
(I11
(lp128
I1168
atp129
s(I0
I36
tp130
(I5
(lp131
I889
atp132
s(I4
I42
tp133
(I14
(lp134
I1340
atp135
s(I2
I38
tp136
(I14
(lp137
I1308
atp138
s(I0
I90
tp139
(I8
(lp140
I1049
atp141
s(I5
I43
tp142
(I5
(lp143
I907
atp144
s(I3
I55
tp145
(I12
(lp146
I1228
atp147
s(I4
I48
tp148
(I14
(lp149
I1346
atp150
s(I1
I82
tp151
(I8
(lp152
I1030
atp153
s(I2
I64
tp154
(I12
(lp155
I1250
atp156
s(I0
I112
tp157
(I11
(lp158
I1186
atp159
s(I5
I53
tp160
(I6
(lp161
I939
atp162
s(I3
I68
tp163
(I13
(lp164
I1299
atp165
s(I4
I94
tp166
(I16
(lp167
I1434
atp168
s(I1
I116
tp169
(I11
(lp170
I1195
atp171
s(I5
I70
tp172
(I16
(lp173
I1395
atp174
s(I3
I106
tp175
(I15
(lp176
I1387
atp177
s(I4
I100
tp178
(I9
(lp179
I1081
atp180
s(I1
I110
tp181
(I11
(lp182
I1201
atp183
s(I1
I137
tp184
(I8
(lp185
I1004
atp186
s(I5
I96
tp187
(I9
(lp188
I1094
atp189
s(I3
I112
tp190
(I15
(lp191
I1381
atp192
s(I0
I59
tp193
(I6
(lp194
I954
atp195
s(I1
I58
tp196
(I7
(lp197
I990
atp198
s(I3
I129
tp199
(I10
(lp200
I1126
atp201
s(I0
I81
tp202
(I8
(lp203
I1040
atp204
s(I3
I60
tp205
(I12
(lp206
I1223
atp207
s(I4
I63
tp208
(I16
(lp209
I1403
atp210
s(I2
I91
tp211
(I10
(lp212
I1143
atp213
s(I5
I62
tp214
(I6
(lp215
I930
atp216
s(I3
I77
tp217
(I13
(lp218
I1290
atp219
s(I4
I69
tp220
(I16
(lp221
I1409
atp222
s(I1
I77
tp223
(I8
(lp224
I1035
atp225
s(I2
I117
tp226
(I11
(lp227
I1219
atp228
s(I0
I109
tp229
(I11
(lp230
I1183
atp231
s(I5
I79
tp232
(I8
(lp233
I1061
atp234
s(I3
I83
tp235
(I13
(lp236
I1284
atp237
s(I4
I99
tp238
(I9
(lp239
I1080
atp240
s(I1
I103
tp241
(I10
(lp242
I1158
atp243
s(I2
I111
tp244
(I11
(lp245
I1213
atp246
s(I1
I130
tp247
(I8
(lp248
I1011
atp249
s(I5
I105
tp250
(I15
(lp251
I1360
atp252
s(I0
I50
tp253
(I6
(lp254
I945
atp255
s(I5
I115
tp256
(I15
(lp257
I1350
atp258
s(I0
I139
tp259
(I11
(lp260
I1172
atp261
s(I1
I51
tp262
(I7
(lp263
I997
atp264
s(I3
I134
tp265
(I10
(lp266
I1121
atp267
s(I2
I56
tp268
(I12
(lp269
I1242
atp270
s(I0
I40
tp271
(I5
(lp272
I893
atp273
s(I3
I37
tp274
(I14
(lp275
I1330
atp276
s(I4
I38
tp277
(I14
(lp278
I1336
atp279
s(I2
I82
tp280
(I13
(lp281
I1268
atp282
s(I0
I78
tp283
(I8
(lp284
I1037
atp285
s(I5
I39
tp286
(I5
(lp287
I911
atp288
s(I4
I76
tp289
(I16
(lp290
I1416
atp291
s(I1
I70
tp292
(I7
(lp293
I978
atp294
s(I2
I76
tp295
(I12
(lp296
I1262
atp297
s(I0
I100
tp298
(I9
(lp299
I1109
atp300
s(I5
I72
tp301
(I16
(lp302
I1393
atp303
s(I3
I88
tp304
(I13
(lp305
I1279
atp306
s(I4
I106
tp307
(I15
(lp308
I1362
atp309
s(I2
I102
tp310
(I10
(lp311
I1154
atp312
s(I5
I82
tp313
(I8
(lp314
I1058
atp315
s(I4
I112
tp316
(I15
(lp317
I1368
atp318
s(I1
I52
tp319
(I7
(lp320
I996
atp321
s(I2
I51
tp322
(I12
(lp323
I1237
atp324
s(I0
I47
tp325
(I5
(lp326
I900
atp327
s(I4
I136
tp328
(I9
(lp329
I1069
atp330
s(I3
I42
tp331
(I14
(lp332
I1325
atp333
s(I1
I46
tp334
(I5
(lp335
I876
atp336
s(I4
I45
tp337
(I14
(lp338
I1343
atp339
s(I2
I45
tp340
(I14
(lp341
I1315
atp342
s(I0
I69
tp343
(I7
(lp344
I964
atp345
s(I3
I48
tp346
(I14
(lp347
I1319
atp348
s(I4
I75
tp349
(I16
(lp350
I1415
atp351
s(I1
I95
tp352
(I8
(lp353
I1017
atp354
s(I2
I71
tp355
(I12
(lp356
I1257
atp357
s(I3
I65
tp358
(I13
(lp359
I1302
atp360
s(I4
I81
tp361
(I16
(lp362
I1421
atp363
s(I1
I113
tp364
(I11
(lp365
I1198
atp366
s(I2
I97
tp367
(I10
(lp368
I1149
atp369
s(I5
I91
tp370
(I9
(lp371
I1099
atp372
s(I3
I103
tp373
(I10
(lp374
I1130
atp375
s(I1
I107
tp376
(I11
(lp377
I1204
atp378
s(I5
I101
tp379
(I9
(lp380
I1089
atp381
s(I0
I38
tp382
(I5
(lp383
I891
atp384
s(I1
I39
tp385
(I5
(lp386
I883
atp387
s(I2
I36
tp388
(I14
(lp389
I1306
atp390
s(I0
I92
tp391
(I9
(lp392
I1101
atp393
s(I5
I41
tp394
(I5
(lp395
I909
atp396
s(I3
I57
tp397
(I12
(lp398
I1226
atp399
s(I4
I50
tp400
(I6
(lp401
I917
atp402
s(I1
I80
tp403
(I8
(lp404
I1032
atp405
s(I2
I94
tp406
(I10
(lp407
I1146
atp408
s(I0
I114
tp409
(I11
(lp410
I1188
atp411
s(I5
I51
tp412
(I6
(lp413
I941
atp414
s(I3
I70
tp415
(I13
(lp416
I1297
atp417
s(I4
I88
tp418
(I16
(lp419
I1428
atp420
s(I1
I74
tp421
(I7
(lp422
I974
atp423
s(I0
I104
tp424
(I9
(lp425
I1113
atp426
s(I5
I68
tp427
(I16
(lp428
I1397
atp429
s(I3
I108
tp430
(I15
(lp431
I1385
atp432
s(I4
I102
tp433
(I9
(lp434
I1083
atp435
s(I1
I108
tp436
(I11
(lp437
I1203
atp438
s(I5
I110
tp439
(I15
(lp440
I1355
atp441
s(I3
I114
tp442
(I15
(lp443
I1379
atp444
s(I0
I144
tp445
(I11
(lp446
I1177
atp447
s(I0
I61
tp448
(I6
(lp449
I956
atp450
s(I1
I56
tp451
(I7
(lp452
I992
atp453
s(I3
I131
tp454
(I10
(lp455
I1124
atp456
s(I2
I63
tp457
(I12
(lp458
I1249
atp459
s(I0
I83
tp460
(I8
(lp461
I1042
atp462
s(I4
I132
tp463
(I9
(lp464
I1065
atp465
s(I3
I62
tp466
(I12
(lp467
I1221
atp468
s(I4
I57
tp469
(I6
(lp470
I924
atp471
s(I2
I89
tp472
(I13
(lp473
I1275
atp474
s(I0
I73
tp475
(I7
(lp476
I968
atp477
s(I5
I60
tp478
(I6
(lp479
I932
atp480
s(I3
I79
tp481
(I13
(lp482
I1288
atp483
s(I4
I71
tp484
(I16
(lp485
I1411
atp486
s(I1
I67
tp487
(I7
(lp488
I981
atp489
s(I2
I115
tp490
(I11
(lp491
I1217
atp492
s(I0
I111
tp493
(I11
(lp494
I1185
atp495
s(I5
I77
tp496
(I8
(lp497
I1063
atp498
s(I3
I85
tp499
(I13
(lp500
I1282
atp501
s(I4
I109
tp502
(I15
(lp503
I1365
atp504
s(I1
I101
tp505
(I10
(lp506
I1160
atp507
s(I2
I109
tp508
(I11
(lp509
I1211
atp510
s(I1
I128
tp511
(I8
(lp512
I1013
atp513
s(I5
I87
tp514
(I8
(lp515
I1053
atp516
s(I0
I52
tp517
(I6
(lp518
I947
atp519
s(I5
I113
tp520
(I15
(lp521
I1352
atp522
s(I0
I141
tp523
(I11
(lp524
I1174
atp525
s(I1
I49
tp526
(I7
(lp527
I999
atp528
s(I3
I136
tp529
(I10
(lp530
I1119
atp531
s(I2
I54
tp532
(I12
(lp533
I1240
atp534
s(I0
I42
tp535
(I5
(lp536
I895
atp537
s(I4
I131
tp538
(I9
(lp539
I1064
atp540
s(I3
I39
tp541
(I14
(lp542
I1328
atp543
s(I1
I43
tp544
(I5
(lp545
I879
atp546
s(I2
I80
tp547
(I13
(lp548
I1266
atp549
s(I0
I64
tp550
(I7
(lp551
I959
atp552
s(I5
I37
tp553
(I5
(lp554
I913
atp555
s(I4
I78
tp556
(I16
(lp557
I1418
atp558
s(I1
I68
tp559
(I7
(lp560
I980
atp561
s(I2
I74
tp562
(I12
(lp563
I1260
atp564
s(I0
I102
tp565
(I9
(lp566
I1111
atp567
s(I3
I90
tp568
(I13
(lp569
I1277
atp570
s(I4
I84
tp571
(I16
(lp572
I1424
atp573
s(I2
I100
tp574
(I10
(lp575
I1152
atp576
s(I5
I80
tp577
(I8
(lp578
I1060
atp579
s(I3
I96
tp580
(I10
(lp581
I1137
atp582
s(I4
I114
tp583
(I15
(lp584
I1370
atp585
s(I0
I132
tp586
(I11
(lp587
I1165
atp588
s(I2
I49
tp589
(I12
(lp590
I1235
atp591
s(I4
I138
tp592
(I9
(lp593
I1071
atp594
s(I3
I44
tp595
(I14
(lp596
I1323
atp597
s(I1
I44
tp598
(I5
(lp599
I878
atp600
s(I4
I47
tp601
(I14
(lp602
I1345
atp603
s(I2
I43
tp604
(I14
(lp605
I1313
atp606
s(I0
I71
tp607
(I7
(lp608
I966
atp609
s(I4
I144
tp610
(I9
(lp611
I1077
atp612
s(I5
I46
tp613
(I5
(lp614
I904
atp615
s(I3
I50
tp616
(I12
(lp617
I1233
atp618
s(I4
I53
tp619
(I6
(lp620
I920
atp621
s(I1
I93
tp622
(I8
(lp623
I1019
atp624
s(I2
I69
tp625
(I12
(lp626
I1255
atp627
s(I3
I67
tp628
(I13
(lp629
I1300
atp630
s(I4
I83
tp631
(I16
(lp632
I1423
atp633
s(I5
I89
tp634
(I8
(lp635
I1051
atp636
s(I3
I105
tp637
(I15
(lp638
I1388
atp639
s(I1
I105
tp640
(I11
(lp641
I1206
atp642
s(I5
I99
tp643
(I9
(lp644
I1091
atp645
s(I0
I56
tp646
(I6
(lp647
I951
atp648
s(I1
I37
tp649
(I5
(lp650
I885
atp651
s(I0
I94
tp652
(I9
(lp653
I1103
atp654
s(I3
I59
tp655
(I12
(lp656
I1224
atp657
s(I4
I60
tp658
(I6
(lp659
I927
atp660
s(I1
I86
tp661
(I8
(lp662
I1026
atp663
s(I2
I92
tp664
(I10
(lp665
I1144
atp666
s(I0
I116
tp667
(I11
(lp668
I1190
atp669
s(I5
I49
tp670
(I6
(lp671
I943
atp672
s(I3
I72
tp673
(I13
(lp674
I1295
atp675
s(I4
I90
tp676
(I16
(lp677
I1430
atp678
s(I1
I72
tp679
(I7
(lp680
I976
atp681
s(I2
I118
tp682
(I11
(lp683
I1220
atp684
s(I0
I106
tp685
(I11
(lp686
I1180
atp687
s(I5
I66
tp688
(I16
(lp689
I1399
atp690
s(I3
I110
tp691
(I15
(lp692
I1383
atp693
s(I4
I96
tp694
(I16
(lp695
I1436
atp696
s(I1
I98
tp697
(I10
(lp698
I1163
atp699
s(I1
I141
tp700
(I8
(lp701
I1000
atp702
s(I5
I108
tp703
(I15
(lp704
I1357
atp705
s(I3
I116
tp706
(I15
(lp707
I1377
atp708
s(I0
I63
tp709
(I7
(lp710
I958
atp711
s(I5
I118
tp712
(I15
(lp713
I1347
atp714
s(I0
I136
tp715
(I11
(lp716
I1169
atp717
s(I1
I62
tp718
(I7
(lp719
I986
atp720
s(I3
I133
tp721
(I10
(lp722
I1122
atp723
s(I2
I61
tp724
(I12
(lp725
I1247
atp726
s(I0
I85
tp727
(I8
(lp728
I1044
atp729
s(I4
I134
tp730
(I9
(lp731
I1067
atp732
s(I4
I59
tp733
(I6
(lp734
I926
atp735
s(I2
I87
tp736
(I13
(lp737
I1273
atp738
s(I0
I75
tp739
(I7
(lp740
I970
atp741
s(I5
I58
tp742
(I6
(lp743
I934
atp744
s(I4
I65
tp745
(I16
(lp746
I1405
atp747
s(I1
I65
tp748
(I7
(lp749
I983
atp750
s(I2
I113
tp751
(I11
(lp752
I1215
atp753
s(I0
I97
tp754
(I9
(lp755
I1106
atp756
s(I5
I75
tp757
(I16
(lp758
I1390
atp759
s(I3
I87
tp760
(I13
(lp761
I1280
atp762
s(I4
I111
tp763
(I15
(lp764
I1367
atp765
s(I2
I107
tp766
(I11
(lp767
I1209
atp768
s(I1
I134
tp769
(I8
(lp770
I1007
atp771
s(I5
I85
tp772
(I8
(lp773
I1055
atp774
s(I4
I117
tp775
(I15
(lp776
I1373
atp777
s(I0
I54
tp778
(I6
(lp779
I949
atp780
s(I0
I143
tp781
(I11
(lp782
I1176
atp783
s(I1
I55
tp784
(I7
(lp785
I993
atp786
s(I3
I138
tp787
(I10
(lp788
I1117
atp789
s(I2
I52
tp790
(I12
(lp791
I1238
atp792
s(I0
I44
tp793
(I5
(lp794
I897
atp795
s(I4
I141
tp796
(I9
(lp797
I1074
atp798
s(I3
I41
tp799
(I14
(lp800
I1326
atp801
s(I1
I41
tp802
(I5
(lp803
I881
atp804
s(I2
I46
tp805
(I14
(lp806
I1316
atp807
s(I0
I66
tp808
(I7
(lp809
I961
atp810
s(I5
I35
tp811
(I5
(lp812
I915
atp813
s(I4
I72
tp814
(I16
(lp815
I1412
atp816
s(I1
I90
tp817
(I8
(lp818
I1022
atp819
s(I2
I72
tp820
(I12
(lp821
I1258
atp822
s(I3
I92
tp823
(I10
(lp824
I1141
atp825
s(I4
I86
tp826
(I16
(lp827
I1426
atp828
s(I2
I98
tp829
(I10
(lp830
I1150
atp831
s(I5
I94
tp832
(I9
(lp833
I1096
atp834
s(I3
I98
tp835
(I10
(lp836
I1135
atp837
s(I0
I134
tp838
(I11
(lp839
I1167
atp840
s(I0
I35
tp841
(I5
(lp842
I888
atp843
s(I3
I46
tp844
(I14
(lp845
I1321
atp846
s(I4
I41
tp847
(I14
(lp848
I1339
atp849
s(I2
I41
tp850
(I14
(lp851
I1311
atp852
s(I0
I89
tp853
(I8
(lp854
I1048
atp855
s(I5
I44
tp856
(I5
(lp857
I906
atp858
s(I3
I52
tp859
(I12
(lp860
I1231
atp861
s(I4
I55
tp862
(I6
(lp863
I922
atp864
s(I1
I83
tp865
(I8
(lp866
I1029
atp867
s(I2
I67
tp868
(I12
(lp869
I1253
atp870
s(I5
I54
tp871
(I6
(lp872
I938
atp873
s(I3
I69
tp874
(I13
(lp875
I1298
atp876
s(I4
I93
tp877
(I16
(lp878
I1433
atp879
s(I1
I117
tp880
(I11
(lp881
I1194
atp882
s(I5
I71
tp883
(I16
(lp884
I1394
atp885
s(I3
I107
tp886
(I15
(lp887
I1386
atp888
s(I1
I111
tp889
(I11
(lp890
I1200
atp891
s(I1
I138
tp892
(I8
(lp893
I1003
atp894
s(I5
I97
tp895
(I9
(lp896
I1093
atp897
s(I3
I113
tp898
(I15
(lp899
I1380
atp900
s(I0
I58
tp901
(I6
(lp902
I953
atp903
s(I1
I59
tp904
(I7
(lp905
I989
atp906
s(I0
I80
tp907
(I8
(lp908
I1039
atp909
s(I3
I61
tp910
(I12
(lp911
I1222
atp912
s(I4
I62
tp913
(I6
(lp914
I929
atp915
s(I1
I84
tp916
(I8
(lp917
I1028
atp918
s(I2
I90
tp919
(I13
(lp920
I1276
atp921
s(I0
I118
tp922
(I11
(lp923
I1192
atp924
s(I5
I63
tp925
(I16
(lp926
I1402
atp927
s(I3
I74
tp928
(I13
(lp929
I1293
atp930
s(I4
I68
tp931
(I16
(lp932
I1408
atp933
s(I1
I78
tp934
(I8
(lp935
I1034
atp936
s(I2
I116
tp937
(I11
(lp938
I1218
atp939
s(I0
I108
tp940
(I11
(lp941
I1182
atp942
s(I5
I64
tp943
(I16
(lp944
I1401
atp945
s(I3
I80
tp946
(I13
(lp947
I1287
atp948
s(I4
I98
tp949
(I9
(lp950
I1079
atp951
s(I1
I96
tp952
(I8
(lp953
I1016
atp954
s(I2
I110
tp955
(I11
(lp956
I1212
atp957
s(I1
I131
tp958
(I8
(lp959
I1010
atp960
s(I5
I106
tp961
(I15
(lp962
I1359
atp963
s(I3
I118
tp964
(I15
(lp965
I1375
atp966
s(I0
I49
tp967
(I6
(lp968
I944
atp969
s(I5
I116
tp970
(I15
(lp971
I1349
atp972
s(I0
I138
tp973
(I11
(lp974
I1171
atp975
s(I1
I60
tp976
(I7
(lp977
I988
atp978
s(I3
I135
tp979
(I10
(lp980
I1120
atp981
s(I2
I59
tp982
(I12
(lp983
I1245
atp984
s(I0
I87
tp985
(I8
(lp986
I1046
atp987
s(I4
I37
tp988
(I14
(lp989
I1335
atp990
s(I2
I85
tp991
(I13
(lp992
I1271
atp993
s(I0
I77
tp994
(I8
(lp995
I1036
atp996
s(I5
I56
tp997
(I6
(lp998
I936
atp999
s(I4
I67
tp1000
(I16
(lp1001
I1407
atp1002
s(I1
I71
tp1003
(I7
(lp1004
I977
atp1005
s(I2
I79
tp1006
(I13
(lp1007
I1265
atp1008
s(I0
I99
tp1009
(I9
(lp1010
I1108
atp1011
s(I5
I73
tp1012
(I16
(lp1013
I1392
atp1014
s(I3
I89
tp1015
(I13
(lp1016
I1278
atp1017
s(I4
I105
tp1018
(I15
(lp1019
I1361
atp1020
s(I2
I105
tp1021
(I11
(lp1022
I1207
atp1023
s(I1
I132
tp1024
(I8
(lp1025
I1009
atp1026
s(I5
I83
tp1027
(I8
(lp1028
I1057
atp1029
s(I3
I127
tp1030
(I10
(lp1031
I1128
atp1032
s(I1
I53
tp1033
(I7
(lp1034
I995
atp1035
s(I3
I140
tp1036
(I10
(lp1037
I1115
atp1038
s(I2
I50
tp1039
(I12
(lp1040
I1236
atp1041
s(I0
I46
tp1042
(I5
(lp1043
I899
atp1044
s(I4
I143
tp1045
(I9
(lp1046
I1076
atp1047
s(I3
I43
tp1048
(I14
(lp1049
I1324
atp1050
s(I1
I47
tp1051
(I5
(lp1052
I875
atp1053
s(I4
I44
tp1054
(I14
(lp1055
I1342
atp1056
s(I2
I44
tp1057
(I14
(lp1058
I1314
atp1059
s(I0
I68
tp1060
(I7
(lp1061
I963
atp1062
s(I3
I49
tp1063
(I12
(lp1064
I1234
atp1065
s(I4
I74
tp1066
(I16
(lp1067
I1414
atp1068
s(I1
I88
tp1069
(I8
(lp1070
I1024
atp1071
s(I2
I70
tp1072
(I12
(lp1073
I1256
atp1074
s(I3
I94
tp1075
(I10
(lp1076
I1139
atp1077
s(I4
I80
tp1078
(I16
(lp1079
I1420
atp1080
s(I1
I114
tp1081
(I11
(lp1082
I1197
atp1083
s(I2
I96
tp1084
(I10
(lp1085
I1148
atp1086
s(I5
I92
tp1087
(I9
(lp1088
I1098
atp1089
s(I3
I100
tp1090
(I10
(lp1091
I1133
atp1092
s(I5
I102
tp1093
(I9
(lp1094
I1088
atp1095
s(I0
I37
tp1096
(I5
(lp1097
I890
atp1098
s(I4
I43
tp1099
(I14
(lp1100
I1341
atp1101
s(I2
I39
tp1102
(I14
(lp1103
I1309
atp1104
s(I0
I91
tp1105
(I9
(lp1106
I1100
atp1107
s(I5
I42
tp1108
(I5
(lp1109
I908
atp1110
s(I3
I54
tp1111
(I12
(lp1112
I1229
atp1113
s(I4
I49
tp1114
(I6
(lp1115
I916
atp1116
s(I1
I81
tp1117
(I8
(lp1118
I1031
atp1119
s(I2
I65
tp1120
(I12
(lp1121
I1251
atp1122
s(I0
I113
tp1123
(I11
(lp1124
I1187
atp1125
s(I5
I52
tp1126
(I6
(lp1127
I940
atp1128
s(I3
I71
tp1129
(I13
(lp1130
I1296
atp1131
s(I4
I95
tp1132
(I16
(lp1133
I1435
atp1134
s(I1
I75
tp1135
(I7
(lp1136
I973
atp1137
s(I5
I69
tp1138
(I16
(lp1139
I1396
atp1140
s(I3
I109
tp1141
(I15
(lp1142
I1384
atp1143
s(I4
I101
tp1144
(I9
(lp1145
I1082
atp1146
s(I1
I109
tp1147
(I11
(lp1148
I1202
atp1149
s(I1
I136
tp1150
(I8
(lp1151
I1005
atp1152
s(I5
I111
tp1153
(I15
(lp1154
I1354
atp1155
s(I3
I115
tp1156
(I15
(lp1157
I1378
atp1158
s(I0
I60
tp1159
(I6
(lp1160
I955
atp1161
s(I1
I57
tp1162
(I7
(lp1163
I991
atp1164
s(I3
I128
tp1165
(I10
(lp1166
I1127
atp1167
s(I2
I62
tp1168
(I12
(lp1169
I1248
atp1170
s(I0
I82
tp1171
(I8
(lp1172
I1041
atp1173
s(I3
I63
tp1174
(I13
(lp1175
I1304
atp1176
s(I4
I56
tp1177
(I6
(lp1178
I923
atp1179
s(I2
I88
tp1180
(I13
(lp1181
I1274
atp1182
s(I0
I72
tp1183
(I7
(lp1184
I967
atp1185
s(I5
I61
tp1186
(I6
(lp1187
I931
atp1188
s(I3
I76
tp1189
(I13
(lp1190
I1291
atp1191
s(I4
I70
tp1192
(I16
(lp1193
I1410
atp1194
s(I1
I76
tp1195
(I7
(lp1196
I972
atp1197
s(I2
I114
tp1198
(I11
(lp1199
I1216
atp1200
s(I0
I110
tp1201
(I11
(lp1202
I1184
atp1203
s(I5
I78
tp1204
(I8
(lp1205
I1062
atp1206
s(I3
I82
tp1207
(I13
(lp1208
I1285
atp1209
s(I4
I108
tp1210
(I15
(lp1211
I1364
atp1212
s(I1
I102
tp1213
(I10
(lp1214
I1159
atp1215
s(I2
I108
tp1216
(I11
(lp1217
I1210
atp1218
s(I1
I129
tp1219
(I8
(lp1220
I1012
atp1221
s(I5
I104
tp1222
(I9
(lp1223
I1086
atp1224
s(I0
I51
tp1225
(I6
(lp1226
I946
atp1227
s(I5
I114
tp1228
(I15
(lp1229
I1351
atp1230
s(I0
I140
tp1231
(I11
(lp1232
I1173
atp1233
s(I1
I50
tp1234
(I7
(lp1235
I998
atp1236
s(I3
I137
tp1237
(I10
(lp1238
I1118
atp1239
s(I2
I57
tp1240
(I12
(lp1241
I1243
atp1242
s(I0
I41
tp1243
(I5
(lp1244
I894
atp1245
s(I3
I36
tp1246
(I14
(lp1247
I1331
atp1248
s(I4
I39
tp1249
(I14
(lp1250
I1337
atp1251
s(I2
I83
tp1252
(I13
(lp1253
I1269
atp1254
s(I0
I79
tp1255
(I8
(lp1256
I1038
atp1257
s(I5
I38
tp1258
(I5
(lp1259
I912
atp1260
s(I4
I77
tp1261
(I16
(lp1262
I1417
atp1263
s(I1
I69
tp1264
(I7
(lp1265
I979
atp1266
s(I2
I77
tp1267
(I13
(lp1268
I1263
atp1269
s(I0
I101
tp1270
(I9
(lp1271
I1110
atp1272
s(I3
I91
tp1273
(I10
(lp1274
I1142
atp1275
s(I4
I107
tp1276
(I15
(lp1277
I1363
atp1278
s(I1
I127
tp1279
(I8
(lp1280
I1014
atp1281
s(I2
I103
tp1282
(I10
(lp1283
I1155
atp1284
s(I5
I81
tp1285
(I8
(lp1286
I1059
atp1287
s(I3
I97
tp1288
(I10
(lp1289
I1136
atp1290
s(I4
I113
tp1291
(I15
(lp1292
I1369
atp1293
s(I0
I131
tp1294
(I11
(lp1295
I1164
atp1296
s(I2
I48
tp1297
(I14
(lp1298
I1318
atp1299
s(I4
I137
tp1300
(I9
(lp1301
I1070
atp1302
s(I3
I45
tp1303
(I14
(lp1304
I1322
atp1305
s(I1
I45
tp1306
(I5
(lp1307
I877
atp1308
s(I4
I46
tp1309
(I14
(lp1310
I1344
atp1311
s(I2
I42
tp1312
(I14
(lp1313
I1312
atp1314
s(I0
I70
tp1315
(I7
(lp1316
I965
atp1317
s(I5
I47
tp1318
(I5
(lp1319
I903
atp1320
s(I3
I51
tp1321
(I12
(lp1322
I1232
atp1323
s(I4
I52
tp1324
(I6
(lp1325
I919
atp1326
s(I1
I94
tp1327
(I8
(lp1328
I1018
atp1329
s(I2
I68
tp1330
(I12
(lp1331
I1254
atp1332
s(I3
I64
tp1333
(I13
(lp1334
I1303
atp1335
s(I4
I82
tp1336
(I16
(lp1337
I1422
atp1338
s(I1
I112
tp1339
(I11
(lp1340
I1199
atp1341
s(I5
I90
tp1342
(I8
(lp1343
I1050
atp1344
s(I3
I102
tp1345
(I10
(lp1346
I1131
atp1347
s(I1
I106
tp1348
(I11
(lp1349
I1205
atp1350
s(I5
I100
tp1351
(I9
(lp1352
I1090
atp1353
s(I0
I39
tp1354
(I5
(lp1355
I892
atp1356
s(I1
I38
tp1357
(I5
(lp1358
I884
atp1359
s(I2
I37
tp1360
(I14
(lp1361
I1307
atp1362
s(I0
I93
tp1363
(I9
(lp1364
I1102
atp1365
s(I5
I40
tp1366
(I5
(lp1367
I910
atp1368
s(I3
I56
tp1369
(I12
(lp1370
I1227
atp1371
s(I4
I51
tp1372
(I6
(lp1373
I918
atp1374
s(I1
I87
tp1375
(I8
(lp1376
I1025
atp1377
s(I2
I95
tp1378
(I10
(lp1379
I1147
atp1380
s(I0
I115
tp1381
(I11
(lp1382
I1189
atp1383
s(I5
I50
tp1384
(I6
(lp1385
I942
atp1386
s(I3
I73
tp1387
(I13
(lp1388
I1294
atp1389
s(I4
I89
tp1390
(I16
(lp1391
I1429
atp1392
s(I1
I73
tp1393
(I7
(lp1394
I975
atp1395
s(I0
I105
tp1396
(I11
(lp1397
I1179
atp1398
s(I5
I67
tp1399
(I16
(lp1400
I1398
atp1401
s(I3
I111
tp1402
(I15
(lp1403
I1382
atp1404
s(I4
I103
tp1405
(I9
(lp1406
I1084
atp1407
s(I1
I99
tp1408
(I10
(lp1409
I1162
atp1410
s(I5
I109
tp1411
(I15
(lp1412
I1356
atp1413
s(I3
I117
tp1414
(I15
(lp1415
I1376
atp1416
s(I0
I145
tp1417
(I11
(lp1418
I1178
atp1419
s(I0
I62
tp1420
(I6
(lp1421
I957
atp1422
s(I1
I63
tp1423
(I7
(lp1424
I985
atp1425
s(I3
I130
tp1426
(I10
(lp1427
I1125
atp1428
s(I2
I60
tp1429
(I12
(lp1430
I1246
atp1431
s(I0
I84
tp1432
(I8
(lp1433
I1043
atp1434
s(I4
I133
tp1435
(I9
(lp1436
I1066
atp1437
s(I4
I58
tp1438
(I6
(lp1439
I925
atp1440
s(I2
I86
tp1441
(I13
(lp1442
I1272
atp1443
s(I0
I74
tp1444
(I7
(lp1445
I969
atp1446
s(I5
I59
tp1447
(I6
(lp1448
I933
atp1449
s(I3
I78
tp1450
(I13
(lp1451
I1289
atp1452
s(I4
I64
tp1453
(I16
(lp1454
I1404
atp1455
s(I1
I66
tp1456
(I7
(lp1457
I982
atp1458
s(I2
I112
tp1459
(I11
(lp1460
I1214
atp1461
s(I0
I96
tp1462
(I9
(lp1463
I1105
atp1464
s(I5
I76
tp1465
(I16
(lp1466
I1389
atp1467
s(I3
I84
tp1468
(I13
(lp1469
I1283
atp1470
s(I4
I110
tp1471
(I15
(lp1472
I1366
atp1473
s(I1
I100
tp1474
(I10
(lp1475
I1161
atp1476
s(I2
I106
tp1477
(I11
(lp1478
I1208
atp1479
s(I1
I135
tp1480
(I8
(lp1481
I1006
atp1482
s(I5
I86
tp1483
(I8
(lp1484
I1054
atp1485
s(I4
I116
tp1486
(I15
(lp1487
I1372
atp1488
s(I0
I53
tp1489
(I6
(lp1490
I948
atp1491
s(I5
I112
tp1492
(I15
(lp1493
I1353
atp1494
s(I0
I142
tp1495
(I11
(lp1496
I1175
atp1497
s(I1
I48
tp1498
(I5
(lp1499
I874
atp1500
s(I3
I139
tp1501
(I10
(lp1502
I1116
atp1503
s(I2
I55
tp1504
(I12
(lp1505
I1241
atp1506
s(I0
I43
tp1507
(I5
(lp1508
I896
atp1509
s(I4
I140
tp1510
(I9
(lp1511
I1073
atp1512
s(I3
I38
tp1513
(I14
(lp1514
I1329
atp1515
s(I1
I42
tp1516
(I5
(lp1517
I880
atp1518
s(I2
I81
tp1519
(I13
(lp1520
I1267
atp1521
s(I0
I65
tp1522
(I7
(lp1523
I960
atp1524
s(I5
I36
tp1525
(I5
(lp1526
I914
atp1527
s(I4
I79
tp1528
(I16
(lp1529
I1419
atp1530
s(I1
I91
tp1531
(I8
(lp1532
I1021
atp1533
s(I2
I75
tp1534
(I12
(lp1535
I1261
atp1536
s(I0
I103
tp1537
(I9
(lp1538
I1112
atp1539
s(I3
I93
tp1540
(I10
(lp1541
I1140
atp1542
s(I4
I85
tp1543
(I16
(lp1544
I1425
atp1545
s(I2
I101
tp1546
(I10
(lp1547
I1153
atp1548
s(I5
I95
tp1549
(I9
(lp1550
I1095
atp1551
s(I3
I99
tp1552
(I10
(lp1553
I1134
atp1554
s(I4
I115
tp1555
(I15
(lp1556
I1371
atp1557
s(I0
I133
tp1558
(I11
(lp1559
I1166
atp1560
s(I4
I139
tp1561
(I9
(lp1562
I1072
atp1563
s(I3
I47
tp1564
(I14
(lp1565
I1320
atp1566
s(I1
I35
tp1567
(I5
(lp1568
I887
atp1569
s(I4
I40
tp1570
(I14
(lp1571
I1338
atp1572
s(I2
I40
tp1573
(I14
(lp1574
I1310
atp1575
s(I0
I88
tp1576
(I8
(lp1577
I1047
atp1578
s(I4
I145
tp1579
(I9
(lp1580
I1078
atp1581
s(I5
I45
tp1582
(I5
(lp1583
I905
atp1584
s(I3
I53
tp1585
(I12
(lp1586
I1230
atp1587
s(I4
I54
tp1588
(I6
(lp1589
I921
atp1590
s(I1
I92
tp1591
(I8
(lp1592
I1020
atp1593
s(I2
I66
tp1594
(I12
(lp1595
I1252
atp1596
s(I5
I55
tp1597
(I6
(lp1598
I937
atp1599
s(I3
I66
tp1600
(I13
(lp1601
I1301
atp1602
s(I4
I92
tp1603
(I16
(lp1604
I1432
atp1605
s(I1
I118
tp1606
(I11
(lp1607
I1193
atp1608
s(I5
I88
tp1609
(I8
(lp1610
I1052
atp1611
s(I3
I104
tp1612
(I10
(lp1613
I1129
atp1614
s(I1
I104
tp1615
(I10
(lp1616
I1157
atp1617
s(I1
I139
tp1618
(I8
(lp1619
I1002
atp1620
s(I5
I98
tp1621
(I9
(lp1622
I1092
atp1623
s(I0
I57
tp1624
(I6
(lp1625
I952
atp1626
s(I1
I36
tp1627
(I5
(lp1628
I886
atp1629
s(I2
I35
tp1630
(I14
(lp1631
I1305
atp1632
s(I0
I95
tp1633
(I9
(lp1634
I1104
atp1635
s(I3
I58
tp1636
(I12
(lp1637
I1225
atp1638
s(I4
I61
tp1639
(I6
(lp1640
I928
atp1641
s(I1
I85
tp1642
(I8
(lp1643
I1027
atp1644
s(I2
I93
tp1645
(I10
(lp1646
I1145
atp1647
s(I0
I117
tp1648
(I11
(lp1649
I1191
atp1650
s(I5
I48
tp1651
(I5
(lp1652
I902
atp1653
s(I3
I75
tp1654
(I13
(lp1655
I1292
atp1656
s(I4
I91
tp1657
(I16
(lp1658
I1431
atp1659
s(I1
I79
tp1660
(I8
(lp1661
I1033
atp1662
s(I0
I107
tp1663
(I11
(lp1664
I1181
atp1665
s(I5
I65
tp1666
(I16
(lp1667
I1400
atp1668
s(I3
I81
tp1669
(I13
(lp1670
I1286
atp1671
s(I4
I97
tp1672
(I16
(lp1673
I1437
atp1674
s(I1
I97
tp1675
(I8
(lp1676
I1015
atp1677
s(I1
I140
tp1678
(I8
(lp1679
I1001
atp1680
s(I5
I107
tp1681
(I15
(lp1682
I1358
atp1683
s(I0
I48
tp1684
(I5
(lp1685
I901
atp1686
s(I5
I117
tp1687
(I15
(lp1688
I1348
atp1689
s(I0
I137
tp1690
(I11
(lp1691
I1170
atp1692
s(I1
I61
tp1693
(I7
(lp1694
I987
atp1695
s(I3
I132
tp1696
(I10
(lp1697
I1123
atp1698
s(I2
I58
tp1699
(I12
(lp1700
I1244
atp1701
ssS'_scaf'
p1702
(dp1703
(I7
I3
tp1704
(I4
(lp1705
I817
atp1706
s(I4
I135
tp1707
(I3
(lp1708
I70
atp1709
s(I3
I35
tp1710
(I4
(lp1711
I680
atp1712
s(I0
I86
tp1713
(I4
(lp1714
I542
atp1715
s(I6
I28
tp1716
(I4
(lp1717
I785
atp1718
s(I4
I36
tp1719
(I4
(lp1720
I752
atp1721
s(I2
I84
tp1722
(I4
(lp1723
I432
atp1724
s(I7
I25
tp1725
(I4
(lp1726
I839
atp1727
s(I5
I57
tp1728
(I4
(lp1729
I222
atp1730
s(I6
I54
tp1731
(I4
(lp1732
I759
atp1733
s(I4
I66
tp1734
(I4
(lp1735
I722
atp1736
s(I1
I64
tp1737
(I4
(lp1738
I633
atp1739
s(I2
I78
tp1740
(I4
(lp1741
I438
atp1742
s(I8
I5
tp1743
(I4
(lp1744
I134
atp1745
s(I0
I98
tp1746
(I4
(lp1747
I530
atp1748
s(I9
I0
tp1749
(I4
(lp1750
I140
atp1751
s(I5
I74
tp1752
(I4
(lp1753
I239
atp1754
s(I3
I86
tp1755
(I4
(lp1756
I355
atp1757
s(I4
I104
tp1758
(I4
(lp1759
I308
atp1760
s(I1
I122
tp1761
(I4
(lp1762
I503
atp1763
s(I2
I104
tp1764
(I4
(lp1765
I412
atp1766
s(I1
I133
tp1767
(I1
(lp1768
I26
atp1769
s(I5
I84
tp1770
(I4
(lp1771
I249
atp1772
s(I4
I118
tp1773
(I4
(lp1774
I294
atp1775
s(I0
I55
tp1776
(I4
(lp1777
I573
atp1778
s(I0
I128
tp1779
(I0
(lp1780
I17
atp1781
s(I1
I54
tp1782
(I4
(lp1783
I623
atp1784
s(I3
I141
tp1785
(I2
(lp1786
I54
atp1787
s(I2
I53
tp1788
(I4
(lp1789
I651
atp1790
s(I0
I45
tp1791
(I4
(lp1792
I583
atp1793
s(I4
I142
tp1794
(I3
(lp1795
I63
atp1796
s(I3
I40
tp1797
(I4
(lp1798
I685
atp1799
s(I1
I40
tp1800
(I4
(lp1801
I609
atp1802
s(I6
I23
tp1803
(I4
(lp1804
I790
atp1805
s(I4
I35
tp1806
(I4
(lp1807
I753
atp1808
s(I2
I47
tp1809
(I4
(lp1810
I657
atp1811
s(I8
I38
tp1812
(I4
(lp1813
I101
atp1814
s(I0
I67
tp1815
(I4
(lp1816
I561
atp1817
s(I0
I76
tp1818
(I4
(lp1819
I552
atp1820
s(I9
I39
tp1821
(I4
(lp1822
I179
atp1823
s(I6
I41
tp1824
(I4
(lp1825
I772
atp1826
s(I4
I73
tp1827
(I4
(lp1828
I339
atp1829
s(I1
I89
tp1830
(I4
(lp1831
I470
atp1832
s(I2
I73
tp1833
(I4
(lp1834
I443
atp1835
s(I8
I12
tp1836
(I4
(lp1837
I127
atp1838
s(I0
I121
tp1839
(I4
(lp1840
I507
atp1841
s(I9
I9
tp1842
(I4
(lp1843
I149
atp1844
s(I3
I95
tp1845
(I4
(lp1846
I364
atp1847
s(I4
I87
tp1848
(I4
(lp1849
I325
atp1850
s(I1
I115
tp1851
(I4
(lp1852
I496
atp1853
s(I2
I99
tp1854
(I4
(lp1855
I417
atp1856
s(I8
I18
tp1857
(I4
(lp1858
I121
atp1859
s(I9
I19
tp1860
(I4
(lp1861
I159
atp1862
s(I5
I93
tp1863
(I4
(lp1864
I258
atp1865
s(I3
I101
tp1866
(I4
(lp1867
I370
atp1868
s(I7
I42
tp1869
(I4
(lp1870
I856
atp1871
s(I5
I103
tp1872
(I4
(lp1873
I268
atp1874
s(I0
I135
tp1875
(I0
(lp1876
I10
atp1877
s(I0
I36
tp1878
(I4
(lp1879
I592
atp1880
s(I1
I33
tp1881
(I4
(lp1882
I602
atp1883
s(I6
I14
tp1884
(I4
(lp1885
I799
atp1886
s(I4
I42
tp1887
(I4
(lp1888
I746
atp1889
s(I2
I38
tp1890
(I4
(lp1891
I666
atp1892
s(I8
I45
tp1893
(I4
(lp1894
I94
atp1895
s(I7
I15
tp1896
(I4
(lp1897
I829
atp1898
s(I5
I43
tp1899
(I4
(lp1900
I208
atp1901
s(I3
I55
tp1902
(I4
(lp1903
I700
atp1904
s(I9
I40
tp1905
(I4
(lp1906
I180
atp1907
s(I7
I1
tp1908
(I4
(lp1909
I815
atp1910
s(I6
I32
tp1911
(I4
(lp1912
I781
atp1913
s(I7
I55
tp1914
(I4
(lp1915
I869
atp1916
s(I1
I82
tp1917
(I4
(lp1918
I463
atp1919
s(I2
I64
tp1920
(I4
(lp1921
I640
atp1922
s(I8
I51
tp1923
(I4
(lp1924
I88
atp1925
s(I7
I37
tp1926
(I4
(lp1927
I851
atp1928
s(I5
I53
tp1929
(I4
(lp1930
I218
atp1931
s(I9
I50
tp1932
(I4
(lp1933
I190
atp1934
s(I6
I58
tp1935
(I4
(lp1936
I755
atp1937
s(I3
I68
tp1938
(I4
(lp1939
I713
atp1940
s(I4
I94
tp1941
(I4
(lp1942
I318
atp1943
s(I1
I116
tp1944
(I4
(lp1945
I497
atp1946
s(I2
I122
tp1947
(I4
(lp1948
I394
atp1949
s(I8
I25
tp1950
(I4
(lp1951
I114
atp1952
s(I9
I20
tp1953
(I4
(lp1954
I160
atp1955
s(I5
I70
tp1956
(I4
(lp1957
I235
atp1958
s(I3
I106
tp1959
(I4
(lp1960
I375
atp1961
s(I4
I100
tp1962
(I4
(lp1963
I312
atp1964
s(I1
I110
tp1965
(I4
(lp1966
I491
atp1967
s(I0
I71
tp1968
(I4
(lp1969
I557
atp1970
s(I5
I96
tp1971
(I4
(lp1972
I261
atp1973
s(I3
I112
tp1974
(I4
(lp1975
I381
atp1976
s(I0
I59
tp1977
(I4
(lp1978
I569
atp1979
s(I1
I58
tp1980
(I4
(lp1981
I627
atp1982
s(I6
I1
tp1983
(I4
(lp1984
I812
atp1985
s(I3
I129
tp1986
(I2
(lp1987
I42
atp1988
s(I2
I33
tp1989
(I4
(lp1990
I671
atp1991
s(I7
I4
tp1992
(I4
(lp1993
I818
atp1994
s(I3
I60
tp1995
(I4
(lp1996
I705
atp1997
s(I6
I27
tp1998
(I4
(lp1999
I786
atp2000
s(I4
I63
tp2001
(I4
(lp2002
I725
atp2003
s(I2
I91
tp2004
(I4
(lp2005
I425
atp2006
s(I8
I58
tp2007
(I4
(lp2008
I81
atp2009
s(I7
I34
tp2010
(I4
(lp2011
I848
atp2012
s(I7
I31
tp2013
(I4
(lp2014
I845
atp2015
s(I5
I62
tp2016
(I4
(lp2017
I227
atp2018
s(I9
I59
tp2019
(I4
(lp2020
I199
atp2021
s(I3
I77
tp2022
(I4
(lp2023
I346
atp2024
s(I4
I69
tp2025
(I4
(lp2026
I719
atp2027
s(I1
I77
tp2028
(I4
(lp2029
I458
atp2030
s(I2
I117
tp2031
(I4
(lp2032
I399
atp2033
s(I8
I0
tp2034
(I4
(lp2035
I139
atp2036
s(I7
I56
tp2037
(I4
(lp2038
I870
atp2039
s(I9
I51
tp2040
(I4
(lp2041
I191
atp2042
s(I9
I29
tp2043
(I4
(lp2044
I169
atp2045
s(I5
I79
tp2046
(I4
(lp2047
I244
atp2048
s(I3
I83
tp2049
(I4
(lp2050
I352
atp2051
s(I4
I99
tp2052
(I4
(lp2053
I313
atp2054
s(I1
I103
tp2055
(I4
(lp2056
I484
atp2057
s(I2
I111
tp2058
(I4
(lp2059
I405
atp2060
s(I1
I130
tp2061
(I1
(lp2062
I23
atp2063
s(I5
I105
tp2064
(I4
(lp2065
I270
atp2066
s(I3
I121
tp2067
(I4
(lp2068
I390
atp2069
s(I2
I30
tp2070
(I4
(lp2071
I674
atp2072
s(I0
I50
tp2073
(I4
(lp2074
I578
atp2075
s(I5
I115
tp2076
(I4
(lp2077
I280
atp2078
s(I3
I31
tp2079
(I4
(lp2080
I676
atp2081
s(I0
I139
tp2082
(I0
(lp2083
I6
atp2084
s(I1
I51
tp2085
(I4
(lp2086
I620
atp2087
s(I3
I134
tp2088
(I2
(lp2089
I47
atp2090
s(I2
I56
tp2091
(I4
(lp2092
I648
atp2093
s(I0
I40
tp2094
(I4
(lp2095
I588
atp2096
s(I4
I129
tp2097
(I3
(lp2098
I76
atp2099
s(I3
I37
tp2100
(I4
(lp2101
I682
atp2102
s(I6
I18
tp2103
(I4
(lp2104
I795
atp2105
s(I4
I38
tp2106
(I4
(lp2107
I750
atp2108
s(I2
I82
tp2109
(I4
(lp2110
I434
atp2111
s(I8
I33
tp2112
(I4
(lp2113
I106
atp2114
s(I7
I27
tp2115
(I4
(lp2116
I841
atp2117
s(I5
I39
tp2118
(I4
(lp2119
I204
atp2120
s(I7
I7
tp2121
(I4
(lp2122
I821
atp2123
s(I6
I52
tp2124
(I4
(lp2125
I761
atp2126
s(I7
I53
tp2127
(I4
(lp2128
I867
atp2129
s(I1
I70
tp2130
(I4
(lp2131
I451
atp2132
s(I2
I76
tp2133
(I4
(lp2134
I440
atp2135
s(I8
I7
tp2136
(I4
(lp2137
I132
atp2138
s(I7
I49
tp2139
(I4
(lp2140
I863
atp2141
s(I9
I6
tp2142
(I4
(lp2143
I146
atp2144
s(I5
I72
tp2145
(I4
(lp2146
I237
atp2147
s(I3
I88
tp2148
(I4
(lp2149
I357
atp2150
s(I4
I106
tp2151
(I4
(lp2152
I306
atp2153
s(I1
I120
tp2154
(I4
(lp2155
I501
atp2156
s(I2
I102
tp2157
(I4
(lp2158
I414
atp2159
s(I5
I82
tp2160
(I4
(lp2161
I247
atp2162
s(I4
I112
tp2163
(I4
(lp2164
I300
atp2165
s(I0
I69
tp2166
(I4
(lp2167
I559
atp2168
s(I0
I130
tp2169
(I0
(lp2170
I15
atp2171
s(I1
I52
tp2172
(I4
(lp2173
I621
atp2174
s(I3
I143
tp2175
(I2
(lp2176
I56
atp2177
s(I2
I51
tp2178
(I4
(lp2179
I653
atp2180
s(I0
I47
tp2181
(I4
(lp2182
I581
atp2183
s(I4
I136
tp2184
(I3
(lp2185
I69
atp2186
s(I3
I42
tp2187
(I4
(lp2188
I687
atp2189
s(I7
I59
tp2190
(I4
(lp2191
I873
atp2192
s(I1
I46
tp2193
(I4
(lp2194
I615
atp2195
s(I6
I21
tp2196
(I4
(lp2197
I792
atp2198
s(I4
I45
tp2199
(I4
(lp2200
I743
atp2201
s(I2
I45
tp2202
(I4
(lp2203
I659
atp2204
s(I8
I40
tp2205
(I4
(lp2206
I99
atp2207
s(I7
I16
tp2208
(I4
(lp2209
I830
atp2210
s(I3
I48
tp2211
(I4
(lp2212
I693
atp2213
s(I9
I37
tp2214
(I4
(lp2215
I177
atp2216
s(I6
I47
tp2217
(I4
(lp2218
I766
atp2219
s(I4
I75
tp2220
(I4
(lp2221
I337
atp2222
s(I1
I95
tp2223
(I4
(lp2224
I476
atp2225
s(I2
I71
tp2226
(I4
(lp2227
I445
atp2228
s(I8
I14
tp2229
(I4
(lp2230
I125
atp2231
s(I0
I123
tp2232
(I4
(lp2233
I505
atp2234
s(I7
I29
tp2235
(I4
(lp2236
I843
atp2237
s(I9
I15
tp2238
(I4
(lp2239
I155
atp2240
s(I3
I65
tp2241
(I4
(lp2242
I710
atp2243
s(I4
I81
tp2244
(I4
(lp2245
I331
atp2246
s(I1
I113
tp2247
(I4
(lp2248
I494
atp2249
s(I2
I97
tp2250
(I4
(lp2251
I419
atp2252
s(I8
I20
tp2253
(I4
(lp2254
I119
atp2255
s(I9
I17
tp2256
(I4
(lp2257
I157
atp2258
s(I5
I91
tp2259
(I4
(lp2260
I256
atp2261
s(I3
I103
tp2262
(I4
(lp2263
I372
atp2264
s(I4
I127
tp2265
(I3
(lp2266
I78
atp2267
s(I1
I107
tp2268
(I4
(lp2269
I488
atp2270
s(I5
I101
tp2271
(I4
(lp2272
I266
atp2273
s(I7
I46
tp2274
(I4
(lp2275
I860
atp2276
s(I0
I38
tp2277
(I4
(lp2278
I590
atp2279
s(I1
I39
tp2280
(I4
(lp2281
I608
atp2282
s(I6
I12
tp2283
(I4
(lp2284
I801
atp2285
s(I2
I36
tp2286
(I4
(lp2287
I668
atp2288
s(I8
I47
tp2289
(I4
(lp2290
I92
atp2291
s(I7
I9
tp2292
(I4
(lp2293
I823
atp2294
s(I5
I41
tp2295
(I4
(lp2296
I206
atp2297
s(I3
I57
tp2298
(I4
(lp2299
I702
atp2300
s(I9
I46
tp2301
(I4
(lp2302
I186
atp2303
s(I6
I38
tp2304
(I4
(lp2305
I775
atp2306
s(I4
I50
tp2307
(I4
(lp2308
I738
atp2309
s(I1
I80
tp2310
(I4
(lp2311
I461
atp2312
s(I2
I94
tp2313
(I4
(lp2314
I422
atp2315
s(I8
I53
tp2316
(I4
(lp2317
I86
atp2318
s(I7
I39
tp2319
(I4
(lp2320
I853
atp2321
s(I5
I51
tp2322
(I4
(lp2323
I216
atp2324
s(I9
I48
tp2325
(I4
(lp2326
I188
atp2327
s(I7
I5
tp2328
(I4
(lp2329
I819
atp2330
s(I6
I56
tp2331
(I4
(lp2332
I757
atp2333
s(I3
I70
tp2334
(I4
(lp2335
I715
atp2336
s(I4
I88
tp2337
(I4
(lp2338
I324
atp2339
s(I1
I74
tp2340
(I4
(lp2341
I455
atp2342
s(I2
I120
tp2343
(I4
(lp2344
I396
atp2345
s(I8
I27
tp2346
(I4
(lp2347
I112
atp2348
s(I0
I104
tp2349
(I4
(lp2350
I524
atp2351
s(I9
I26
tp2352
(I4
(lp2353
I166
atp2354
s(I5
I68
tp2355
(I4
(lp2356
I233
atp2357
s(I3
I108
tp2358
(I4
(lp2359
I377
atp2360
s(I4
I102
tp2361
(I4
(lp2362
I310
atp2363
s(I1
I108
tp2364
(I4
(lp2365
I489
atp2366
s(I1
I145
tp2367
(I1
(lp2368
I38
atp2369
s(I1
I143
tp2370
(I1
(lp2371
I36
atp2372
s(I5
I110
tp2373
(I4
(lp2374
I275
atp2375
s(I3
I114
tp2376
(I4
(lp2377
I383
atp2378
s(I0
I144
tp2379
(I0
(lp2380
I1
atp2381
s(I0
I61
tp2382
(I4
(lp2383
I567
atp2384
s(I7
I22
tp2385
(I4
(lp2386
I836
atp2387
s(I1
I56
tp2388
(I4
(lp2389
I625
atp2390
s(I6
I7
tp2391
(I4
(lp2392
I806
atp2393
s(I3
I131
tp2394
(I2
(lp2395
I44
atp2396
s(I2
I63
tp2397
(I4
(lp2398
I641
atp2399
s(I7
I6
tp2400
(I4
(lp2401
I820
atp2402
s(I4
I132
tp2403
(I3
(lp2404
I73
atp2405
s(I3
I62
tp2406
(I4
(lp2407
I707
atp2408
s(I6
I25
tp2409
(I4
(lp2410
I788
atp2411
s(I4
I57
tp2412
(I4
(lp2413
I731
atp2414
s(I2
I89
tp2415
(I4
(lp2416
I427
atp2417
s(I7
I28
tp2418
(I4
(lp2419
I842
atp2420
s(I5
I60
tp2421
(I4
(lp2422
I225
atp2423
s(I9
I57
tp2424
(I4
(lp2425
I197
atp2426
s(I6
I51
tp2427
(I4
(lp2428
I762
atp2429
s(I3
I79
tp2430
(I4
(lp2431
I348
atp2432
s(I4
I71
tp2433
(I4
(lp2434
I717
atp2435
s(I1
I67
tp2436
(I4
(lp2437
I636
atp2438
s(I2
I115
tp2439
(I4
(lp2440
I401
atp2441
s(I8
I2
tp2442
(I4
(lp2443
I137
atp2444
s(I7
I58
tp2445
(I4
(lp2446
I872
atp2447
s(I7
I35
tp2448
(I4
(lp2449
I849
atp2450
s(I9
I3
tp2451
(I4
(lp2452
I143
atp2453
s(I5
I77
tp2454
(I4
(lp2455
I242
atp2456
s(I3
I85
tp2457
(I4
(lp2458
I354
atp2459
s(I4
I109
tp2460
(I4
(lp2461
I303
atp2462
s(I1
I101
tp2463
(I4
(lp2464
I482
atp2465
s(I2
I109
tp2466
(I4
(lp2467
I407
atp2468
s(I0
I30
tp2469
(I4
(lp2470
I598
atp2471
s(I1
I128
tp2472
(I1
(lp2473
I21
atp2474
s(I5
I87
tp2475
(I4
(lp2476
I252
atp2477
s(I3
I123
tp2478
(I4
(lp2479
I392
atp2480
s(I1
I31
tp2481
(I4
(lp2482
I600
atp2483
s(I0
I52
tp2484
(I4
(lp2485
I576
atp2486
s(I5
I113
tp2487
(I4
(lp2488
I278
atp2489
s(I0
I141
tp2490
(I0
(lp2491
I4
atp2492
s(I1
I49
tp2493
(I4
(lp2494
I618
atp2495
s(I3
I136
tp2496
(I2
(lp2497
I49
atp2498
s(I7
I44
tp2499
(I4
(lp2500
I858
atp2501
s(I2
I54
tp2502
(I4
(lp2503
I650
atp2504
s(I0
I42
tp2505
(I4
(lp2506
I586
atp2507
s(I4
I131
tp2508
(I3
(lp2509
I74
atp2510
s(I3
I39
tp2511
(I4
(lp2512
I684
atp2513
s(I1
I43
tp2514
(I4
(lp2515
I612
atp2516
s(I6
I16
tp2517
(I4
(lp2518
I797
atp2519
s(I2
I80
tp2520
(I4
(lp2521
I436
atp2522
s(I8
I35
tp2523
(I4
(lp2524
I104
atp2525
s(I7
I21
tp2526
(I4
(lp2527
I835
atp2528
s(I5
I37
tp2529
(I4
(lp2530
I202
atp2531
s(I9
I34
tp2532
(I4
(lp2533
I174
atp2534
s(I6
I42
tp2535
(I4
(lp2536
I771
atp2537
s(I4
I78
tp2538
(I4
(lp2539
I334
atp2540
s(I1
I68
tp2541
(I4
(lp2542
I449
atp2543
s(I2
I74
tp2544
(I4
(lp2545
I442
atp2546
s(I8
I9
tp2547
(I4
(lp2548
I130
atp2549
s(I0
I102
tp2550
(I4
(lp2551
I526
atp2552
s(I9
I4
tp2553
(I4
(lp2554
I144
atp2555
s(I0
I94
tp2556
(I4
(lp2557
I534
atp2558
s(I3
I90
tp2559
(I4
(lp2560
I359
atp2561
s(I7
I57
tp2562
(I4
(lp2563
I871
atp2564
s(I2
I100
tp2565
(I4
(lp2566
I416
atp2567
s(I5
I80
tp2568
(I4
(lp2569
I245
atp2570
s(I3
I96
tp2571
(I4
(lp2572
I365
atp2573
s(I4
I114
tp2574
(I4
(lp2575
I298
atp2576
s(I5
I122
tp2577
(I4
(lp2578
I287
atp2579
s(I0
I132
tp2580
(I0
(lp2581
I13
atp2582
s(I2
I49
tp2583
(I4
(lp2584
I655
atp2585
s(I0
I33
tp2586
(I4
(lp2587
I595
atp2588
s(I4
I138
tp2589
(I3
(lp2590
I67
atp2591
s(I3
I44
tp2592
(I4
(lp2593
I689
atp2594
s(I1
I44
tp2595
(I4
(lp2596
I613
atp2597
s(I6
I11
tp2598
(I4
(lp2599
I802
atp2600
s(I4
I47
tp2601
(I4
(lp2602
I741
atp2603
s(I2
I43
tp2604
(I4
(lp2605
I661
atp2606
s(I8
I42
tp2607
(I4
(lp2608
I97
atp2609
s(I7
I18
tp2610
(I4
(lp2611
I832
atp2612
s(I4
I144
tp2613
(I3
(lp2614
I61
atp2615
s(I5
I46
tp2616
(I4
(lp2617
I211
atp2618
s(I3
I50
tp2619
(I4
(lp2620
I695
atp2621
s(I9
I43
tp2622
(I4
(lp2623
I183
atp2624
s(I6
I45
tp2625
(I4
(lp2626
I768
atp2627
s(I4
I53
tp2628
(I4
(lp2629
I735
atp2630
s(I1
I93
tp2631
(I4
(lp2632
I474
atp2633
s(I2
I69
tp2634
(I4
(lp2635
I447
atp2636
s(I8
I48
tp2637
(I4
(lp2638
I91
atp2639
s(I7
I40
tp2640
(I4
(lp2641
I854
atp2642
s(I9
I13
tp2643
(I4
(lp2644
I153
atp2645
s(I3
I67
tp2646
(I4
(lp2647
I712
atp2648
s(I4
I83
tp2649
(I4
(lp2650
I329
atp2651
s(I1
I119
tp2652
(I4
(lp2653
I500
atp2654
s(I8
I22
tp2655
(I4
(lp2656
I117
atp2657
s(I7
I33
tp2658
(I4
(lp2659
I847
atp2660
s(I9
I23
tp2661
(I4
(lp2662
I163
atp2663
s(I1
I146
tp2664
(I1
(lp2665
I39
atp2666
s(I5
I89
tp2667
(I4
(lp2668
I254
atp2669
s(I3
I105
tp2670
(I4
(lp2671
I374
atp2672
s(I4
I121
tp2673
(I4
(lp2674
I291
atp2675
s(I1
I105
tp2676
(I4
(lp2677
I486
atp2678
s(I4
I40
tp2679
(I4
(lp2680
I748
atp2681
s(I5
I99
tp2682
(I4
(lp2683
I264
atp2684
s(I0
I56
tp2685
(I4
(lp2686
I572
atp2687
s(I1
I37
tp2688
(I4
(lp2689
I606
atp2690
s(I6
I2
tp2691
(I4
(lp2692
I811
atp2693
s(I7
I50
tp2694
(I4
(lp2695
I864
atp2696
s(I2
I34
tp2697
(I4
(lp2698
I670
atp2699
s(I7
I11
tp2700
(I4
(lp2701
I825
atp2702
s(I3
I59
tp2703
(I4
(lp2704
I704
atp2705
s(I9
I44
tp2706
(I4
(lp2707
I184
atp2708
s(I6
I36
tp2709
(I4
(lp2710
I777
atp2711
s(I4
I60
tp2712
(I4
(lp2713
I728
atp2714
s(I1
I86
tp2715
(I4
(lp2716
I467
atp2717
s(I2
I92
tp2718
(I4
(lp2719
I424
atp2720
s(I8
I55
tp2721
(I4
(lp2722
I84
atp2723
s(I0
I116
tp2724
(I4
(lp2725
I512
atp2726
s(I5
I49
tp2727
(I4
(lp2728
I214
atp2729
s(I9
I54
tp2730
(I4
(lp2731
I194
atp2732
s(I3
I72
tp2733
(I4
(lp2734
I341
atp2735
s(I4
I90
tp2736
(I4
(lp2737
I322
atp2738
s(I1
I72
tp2739
(I4
(lp2740
I453
atp2741
s(I2
I118
tp2742
(I4
(lp2743
I398
atp2744
s(I8
I29
tp2745
(I4
(lp2746
I110
atp2747
s(I0
I106
tp2748
(I4
(lp2749
I522
atp2750
s(I9
I24
tp2751
(I4
(lp2752
I164
atp2753
s(I0
I92
tp2754
(I4
(lp2755
I536
atp2756
s(I5
I66
tp2757
(I4
(lp2758
I231
atp2759
s(I3
I110
tp2760
(I4
(lp2761
I379
atp2762
s(I4
I96
tp2763
(I4
(lp2764
I316
atp2765
s(I1
I98
tp2766
(I4
(lp2767
I479
atp2768
s(I1
I141
tp2769
(I1
(lp2770
I34
atp2771
s(I5
I108
tp2772
(I4
(lp2773
I273
atp2774
s(I3
I116
tp2775
(I4
(lp2776
I385
atp2777
s(I0
I63
tp2778
(I4
(lp2779
I565
atp2780
s(I5
I118
tp2781
(I4
(lp2782
I283
atp2783
s(I0
I136
tp2784
(I0
(lp2785
I9
atp2786
s(I1
I62
tp2787
(I4
(lp2788
I631
atp2789
s(I6
I5
tp2790
(I4
(lp2791
I808
atp2792
s(I3
I133
tp2793
(I2
(lp2794
I46
atp2795
s(I2
I61
tp2796
(I4
(lp2797
I643
atp2798
s(I7
I0
tp2799
(I4
(lp2800
I814
atp2801
s(I4
I134
tp2802
(I3
(lp2803
I71
atp2804
s(I3
I32
tp2805
(I4
(lp2806
I677
atp2807
s(I6
I31
tp2808
(I4
(lp2809
I782
atp2810
s(I4
I59
tp2811
(I4
(lp2812
I729
atp2813
s(I2
I87
tp2814
(I4
(lp2815
I429
atp2816
s(I7
I30
tp2817
(I4
(lp2818
I844
atp2819
s(I5
I58
tp2820
(I4
(lp2821
I223
atp2822
s(I6
I49
tp2823
(I4
(lp2824
I764
atp2825
s(I4
I65
tp2826
(I4
(lp2827
I723
atp2828
s(I1
I65
tp2829
(I4
(lp2830
I634
atp2831
s(I2
I113
tp2832
(I4
(lp2833
I403
atp2834
s(I8
I4
tp2835
(I4
(lp2836
I135
atp2837
s(I7
I52
tp2838
(I4
(lp2839
I866
atp2840
s(I9
I1
tp2841
(I4
(lp2842
I141
atp2843
s(I5
I75
tp2844
(I4
(lp2845
I240
atp2846
s(I3
I87
tp2847
(I4
(lp2848
I356
atp2849
s(I4
I111
tp2850
(I4
(lp2851
I301
atp2852
s(I1
I123
tp2853
(I4
(lp2854
I504
atp2855
s(I2
I107
tp2856
(I4
(lp2857
I409
atp2858
s(I0
I114
tp2859
(I4
(lp2860
I514
atp2861
s(I1
I134
tp2862
(I1
(lp2863
I27
atp2864
s(I5
I85
tp2865
(I4
(lp2866
I250
atp2867
s(I4
I117
tp2868
(I4
(lp2869
I295
atp2870
s(I0
I54
tp2871
(I4
(lp2872
I574
atp2873
s(I0
I143
tp2874
(I0
(lp2875
I2
atp2876
s(I1
I55
tp2877
(I4
(lp2878
I624
atp2879
s(I3
I138
tp2880
(I2
(lp2881
I51
atp2882
s(I2
I52
tp2883
(I4
(lp2884
I652
atp2885
s(I0
I44
tp2886
(I4
(lp2887
I584
atp2888
s(I4
I141
tp2889
(I3
(lp2890
I64
atp2891
s(I3
I41
tp2892
(I4
(lp2893
I686
atp2894
s(I1
I41
tp2895
(I4
(lp2896
I610
atp2897
s(I6
I22
tp2898
(I4
(lp2899
I791
atp2900
s(I3
I144
tp2901
(I2
(lp2902
I57
atp2903
s(I7
I48
tp2904
(I4
(lp2905
I862
atp2906
s(I2
I46
tp2907
(I4
(lp2908
I658
atp2909
s(I8
I37
tp2910
(I4
(lp2911
I102
atp2912
s(I7
I23
tp2913
(I4
(lp2914
I837
atp2915
s(I5
I35
tp2916
(I4
(lp2917
I200
atp2918
s(I9
I32
tp2919
(I4
(lp2920
I172
atp2921
s(I6
I40
tp2922
(I4
(lp2923
I773
atp2924
s(I4
I72
tp2925
(I4
(lp2926
I340
atp2927
s(I1
I90
tp2928
(I4
(lp2929
I471
atp2930
s(I2
I72
tp2931
(I4
(lp2932
I444
atp2933
s(I8
I11
tp2934
(I4
(lp2935
I128
atp2936
s(I7
I45
tp2937
(I4
(lp2938
I859
atp2939
s(I9
I10
tp2940
(I4
(lp2941
I150
atp2942
s(I3
I92
tp2943
(I4
(lp2944
I361
atp2945
s(I4
I86
tp2946
(I4
(lp2947
I326
atp2948
s(I2
I98
tp2949
(I4
(lp2950
I418
atp2951
s(I8
I17
tp2952
(I4
(lp2953
I122
atp2954
s(I0
I90
tp2955
(I4
(lp2956
I538
atp2957
s(I5
I94
tp2958
(I4
(lp2959
I259
atp2960
s(I3
I98
tp2961
(I4
(lp2962
I367
atp2963
s(I5
I120
tp2964
(I4
(lp2965
I285
atp2966
s(I0
I134
tp2967
(I0
(lp2968
I11
atp2969
s(I0
I35
tp2970
(I4
(lp2971
I593
atp2972
s(I3
I46
tp2973
(I4
(lp2974
I691
atp2975
s(I1
I34
tp2976
(I4
(lp2977
I603
atp2978
s(I6
I9
tp2979
(I4
(lp2980
I804
atp2981
s(I4
I41
tp2982
(I4
(lp2983
I747
atp2984
s(I2
I41
tp2985
(I4
(lp2986
I663
atp2987
s(I8
I44
tp2988
(I4
(lp2989
I95
atp2990
s(I7
I12
tp2991
(I4
(lp2992
I826
atp2993
s(I7
I24
tp2994
(I4
(lp2995
I838
atp2996
s(I5
I44
tp2997
(I4
(lp2998
I209
atp2999
s(I3
I52
tp3000
(I4
(lp3001
I697
atp3002
s(I9
I41
tp3003
(I4
(lp3004
I181
atp3005
s(I6
I35
tp3006
(I4
(lp3007
I778
atp3008
s(I4
I55
tp3009
(I4
(lp3010
I733
atp3011
s(I1
I83
tp3012
(I4
(lp3013
I464
atp3014
s(I2
I67
tp3015
(I4
(lp3016
I637
atp3017
s(I8
I50
tp3018
(I4
(lp3019
I89
atp3020
s(I0
I127
tp3021
(I0
(lp3022
I18
atp3023
s(I5
I54
tp3024
(I4
(lp3025
I219
atp3026
s(I4
I48
tp3027
(I4
(lp3028
I740
atp3029
s(I3
I69
tp3030
(I4
(lp3031
I714
atp3032
s(I4
I93
tp3033
(I4
(lp3034
I319
atp3035
s(I1
I117
tp3036
(I4
(lp3037
I498
atp3038
s(I8
I24
tp3039
(I4
(lp3040
I115
atp3041
s(I9
I21
tp3042
(I4
(lp3043
I161
atp3044
s(I1
I144
tp3045
(I1
(lp3046
I37
atp3047
s(I5
I71
tp3048
(I4
(lp3049
I236
atp3050
s(I3
I107
tp3051
(I4
(lp3052
I376
atp3053
s(I4
I123
tp3054
(I4
(lp3055
I289
atp3056
s(I1
I111
tp3057
(I4
(lp3058
I492
atp3059
s(I0
I112
tp3060
(I4
(lp3061
I516
atp3062
s(I1
I138
tp3063
(I1
(lp3064
I31
atp3065
s(I5
I97
tp3066
(I4
(lp3067
I262
atp3068
s(I3
I113
tp3069
(I4
(lp3070
I382
atp3071
s(I0
I58
tp3072
(I4
(lp3073
I570
atp3074
s(I1
I59
tp3075
(I4
(lp3076
I628
atp3077
s(I6
I0
tp3078
(I4
(lp3079
I813
atp3080
s(I2
I32
tp3081
(I4
(lp3082
I672
atp3083
s(I0
I80
tp3084
(I4
(lp3085
I548
atp3086
s(I3
I61
tp3087
(I4
(lp3088
I706
atp3089
s(I0
I85
tp3090
(I4
(lp3091
I543
atp3092
s(I6
I26
tp3093
(I4
(lp3094
I787
atp3095
s(I4
I62
tp3096
(I4
(lp3097
I726
atp3098
s(I1
I84
tp3099
(I4
(lp3100
I465
atp3101
s(I2
I90
tp3102
(I4
(lp3103
I426
atp3104
s(I8
I57
tp3105
(I4
(lp3106
I82
atp3107
s(I0
I118
tp3108
(I4
(lp3109
I510
atp3110
s(I5
I63
tp3111
(I4
(lp3112
I228
atp3113
s(I9
I52
tp3114
(I4
(lp3115
I192
atp3116
s(I3
I74
tp3117
(I4
(lp3118
I343
atp3119
s(I4
I68
tp3120
(I4
(lp3121
I720
atp3122
s(I1
I78
tp3123
(I4
(lp3124
I459
atp3125
s(I2
I116
tp3126
(I4
(lp3127
I400
atp3128
s(I8
I31
tp3129
(I4
(lp3130
I108
atp3131
s(I0
I108
tp3132
(I4
(lp3133
I520
atp3134
s(I9
I30
tp3135
(I4
(lp3136
I170
atp3137
s(I5
I64
tp3138
(I4
(lp3139
I229
atp3140
s(I3
I80
tp3141
(I4
(lp3142
I349
atp3143
s(I4
I98
tp3144
(I4
(lp3145
I314
atp3146
s(I1
I96
tp3147
(I4
(lp3148
I477
atp3149
s(I2
I110
tp3150
(I4
(lp3151
I406
atp3152
s(I8
I49
tp3153
(I4
(lp3154
I90
atp3155
s(I1
I131
tp3156
(I1
(lp3157
I24
atp3158
s(I5
I106
tp3159
(I4
(lp3160
I271
atp3161
s(I3
I118
tp3162
(I4
(lp3163
I387
atp3164
s(I0
I49
tp3165
(I4
(lp3166
I579
atp3167
s(I5
I116
tp3168
(I4
(lp3169
I281
atp3170
s(I0
I138
tp3171
(I0
(lp3172
I7
atp3173
s(I1
I60
tp3174
(I4
(lp3175
I629
atp3176
s(I3
I135
tp3177
(I2
(lp3178
I48
atp3179
s(I2
I59
tp3180
(I4
(lp3181
I645
atp3182
s(I0
I87
tp3183
(I4
(lp3184
I541
atp3185
s(I4
I128
tp3186
(I3
(lp3187
I77
atp3188
s(I3
I34
tp3189
(I4
(lp3190
I679
atp3191
s(I6
I29
tp3192
(I4
(lp3193
I784
atp3194
s(I4
I37
tp3195
(I4
(lp3196
I751
atp3197
s(I2
I85
tp3198
(I4
(lp3199
I431
atp3200
s(I8
I32
tp3201
(I4
(lp3202
I107
atp3203
s(I0
I77
tp3204
(I4
(lp3205
I551
atp3206
s(I0
I75
tp3207
(I4
(lp3208
I553
atp3209
s(I5
I56
tp3210
(I4
(lp3211
I221
atp3212
s(I6
I55
tp3213
(I4
(lp3214
I758
atp3215
s(I4
I67
tp3216
(I4
(lp3217
I721
atp3218
s(I1
I71
tp3219
(I4
(lp3220
I452
atp3221
s(I2
I79
tp3222
(I4
(lp3223
I437
atp3224
s(I8
I6
tp3225
(I4
(lp3226
I133
atp3227
s(I7
I54
tp3228
(I4
(lp3229
I868
atp3230
s(I9
I7
tp3231
(I4
(lp3232
I147
atp3233
s(I5
I73
tp3234
(I4
(lp3235
I238
atp3236
s(I3
I89
tp3237
(I4
(lp3238
I358
atp3239
s(I4
I105
tp3240
(I4
(lp3241
I307
atp3242
s(I1
I121
tp3243
(I4
(lp3244
I502
atp3245
s(I2
I105
tp3246
(I4
(lp3247
I411
atp3248
s(I1
I132
tp3249
(I1
(lp3250
I25
atp3251
s(I5
I83
tp3252
(I4
(lp3253
I248
atp3254
s(I3
I127
tp3255
(I2
(lp3256
I40
atp3257
s(I4
I119
tp3258
(I4
(lp3259
I293
atp3260
s(I7
I43
tp3261
(I4
(lp3262
I857
atp3263
s(I0
I129
tp3264
(I0
(lp3265
I16
atp3266
s(I1
I53
tp3267
(I4
(lp3268
I622
atp3269
s(I3
I140
tp3270
(I2
(lp3271
I53
atp3272
s(I2
I50
tp3273
(I4
(lp3274
I654
atp3275
s(I0
I46
tp3276
(I4
(lp3277
I582
atp3278
s(I4
I143
tp3279
(I3
(lp3280
I62
atp3281
s(I3
I43
tp3282
(I4
(lp3283
I688
atp3284
s(I1
I47
tp3285
(I4
(lp3286
I616
atp3287
s(I6
I20
tp3288
(I4
(lp3289
I793
atp3290
s(I3
I146
tp3291
(I2
(lp3292
I59
atp3293
s(I4
I44
tp3294
(I4
(lp3295
I744
atp3296
s(I2
I44
tp3297
(I4
(lp3298
I660
atp3299
s(I8
I39
tp3300
(I4
(lp3301
I100
atp3302
s(I7
I17
tp3303
(I4
(lp3304
I831
atp3305
s(I3
I49
tp3306
(I4
(lp3307
I694
atp3308
s(I9
I38
tp3309
(I4
(lp3310
I178
atp3311
s(I0
I83
tp3312
(I4
(lp3313
I545
atp3314
s(I1
I137
tp3315
(I1
(lp3316
I30
atp3317
s(I0
I97
tp3318
(I4
(lp3319
I531
atp3320
s(I1
I88
tp3321
(I4
(lp3322
I469
atp3323
s(I2
I70
tp3324
(I4
(lp3325
I446
atp3326
s(I8
I13
tp3327
(I4
(lp3328
I126
atp3329
s(I7
I47
tp3330
(I4
(lp3331
I861
atp3332
s(I9
I8
tp3333
(I4
(lp3334
I148
atp3335
s(I3
I94
tp3336
(I4
(lp3337
I363
atp3338
s(I4
I80
tp3339
(I4
(lp3340
I332
atp3341
s(I1
I114
tp3342
(I4
(lp3343
I495
atp3344
s(I2
I96
tp3345
(I4
(lp3346
I420
atp3347
s(I8
I19
tp3348
(I4
(lp3349
I120
atp3350
s(I9
I18
tp3351
(I4
(lp3352
I158
atp3353
s(I5
I92
tp3354
(I4
(lp3355
I257
atp3356
s(I3
I100
tp3357
(I4
(lp3358
I369
atp3359
s(I4
I126
tp3360
(I3
(lp3361
I79
atp3362
s(I1
I92
tp3363
(I4
(lp3364
I473
atp3365
s(I7
I19
tp3366
(I4
(lp3367
I833
atp3368
s(I5
I102
tp3369
(I4
(lp3370
I267
atp3371
s(I0
I37
tp3372
(I4
(lp3373
I591
atp3374
s(I1
I32
tp3375
(I4
(lp3376
I601
atp3377
s(I6
I15
tp3378
(I4
(lp3379
I798
atp3380
s(I4
I43
tp3381
(I4
(lp3382
I745
atp3383
s(I2
I39
tp3384
(I4
(lp3385
I665
atp3386
s(I8
I46
tp3387
(I4
(lp3388
I93
atp3389
s(I0
I91
tp3390
(I4
(lp3391
I537
atp3392
s(I5
I42
tp3393
(I4
(lp3394
I207
atp3395
s(I3
I54
tp3396
(I4
(lp3397
I699
atp3398
s(I9
I47
tp3399
(I4
(lp3400
I187
atp3401
s(I6
I33
tp3402
(I4
(lp3403
I780
atp3404
s(I7
I13
tp3405
(I4
(lp3406
I827
atp3407
s(I4
I49
tp3408
(I4
(lp3409
I739
atp3410
s(I1
I81
tp3411
(I4
(lp3412
I462
atp3413
s(I2
I65
tp3414
(I4
(lp3415
I639
atp3416
s(I8
I52
tp3417
(I4
(lp3418
I87
atp3419
s(I7
I36
tp3420
(I4
(lp3421
I850
atp3422
s(I0
I73
tp3423
(I4
(lp3424
I555
atp3425
s(I5
I52
tp3426
(I4
(lp3427
I217
atp3428
s(I9
I49
tp3429
(I4
(lp3430
I189
atp3431
s(I6
I59
tp3432
(I4
(lp3433
I754
atp3434
s(I3
I71
tp3435
(I4
(lp3436
I716
atp3437
s(I4
I95
tp3438
(I4
(lp3439
I317
atp3440
s(I1
I75
tp3441
(I4
(lp3442
I456
atp3443
s(I2
I123
tp3444
(I4
(lp3445
I393
atp3446
s(I8
I26
tp3447
(I4
(lp3448
I113
atp3449
s(I9
I27
tp3450
(I4
(lp3451
I167
atp3452
s(I5
I69
tp3453
(I4
(lp3454
I234
atp3455
s(I3
I109
tp3456
(I4
(lp3457
I378
atp3458
s(I4
I101
tp3459
(I4
(lp3460
I311
atp3461
s(I1
I109
tp3462
(I4
(lp3463
I490
atp3464
s(I1
I136
tp3465
(I1
(lp3466
I29
atp3467
s(I5
I111
tp3468
(I4
(lp3469
I276
atp3470
s(I3
I115
tp3471
(I4
(lp3472
I384
atp3473
s(I0
I60
tp3474
(I4
(lp3475
I568
atp3476
s(I1
I57
tp3477
(I4
(lp3478
I626
atp3479
s(I6
I6
tp3480
(I4
(lp3481
I807
atp3482
s(I3
I128
tp3483
(I2
(lp3484
I41
atp3485
s(I2
I62
tp3486
(I4
(lp3487
I642
atp3488
s(I0
I82
tp3489
(I4
(lp3490
I546
atp3491
s(I3
I63
tp3492
(I4
(lp3493
I708
atp3494
s(I6
I24
tp3495
(I4
(lp3496
I789
atp3497
s(I4
I56
tp3498
(I4
(lp3499
I732
atp3500
s(I2
I88
tp3501
(I4
(lp3502
I428
atp3503
s(I8
I59
tp3504
(I4
(lp3505
I80
atp3506
s(I0
I72
tp3507
(I4
(lp3508
I556
atp3509
s(I5
I61
tp3510
(I4
(lp3511
I226
atp3512
s(I9
I58
tp3513
(I4
(lp3514
I198
atp3515
s(I0
I81
tp3516
(I4
(lp3517
I547
atp3518
s(I6
I50
tp3519
(I4
(lp3520
I763
atp3521
s(I3
I76
tp3522
(I4
(lp3523
I345
atp3524
s(I0
I111
tp3525
(I4
(lp3526
I517
atp3527
s(I1
I76
tp3528
(I4
(lp3529
I457
atp3530
s(I2
I114
tp3531
(I4
(lp3532
I402
atp3533
s(I8
I1
tp3534
(I4
(lp3535
I138
atp3536
s(I0
I110
tp3537
(I4
(lp3538
I518
atp3539
s(I9
I28
tp3540
(I4
(lp3541
I168
atp3542
s(I5
I78
tp3543
(I4
(lp3544
I243
atp3545
s(I3
I82
tp3546
(I4
(lp3547
I351
atp3548
s(I4
I108
tp3549
(I4
(lp3550
I304
atp3551
s(I1
I102
tp3552
(I4
(lp3553
I483
atp3554
s(I2
I108
tp3555
(I4
(lp3556
I408
atp3557
s(I1
I129
tp3558
(I1
(lp3559
I22
atp3560
s(I5
I104
tp3561
(I4
(lp3562
I269
atp3563
s(I3
I120
tp3564
(I4
(lp3565
I389
atp3566
s(I2
I31
tp3567
(I4
(lp3568
I673
atp3569
s(I0
I51
tp3570
(I4
(lp3571
I577
atp3572
s(I0
I68
tp3573
(I4
(lp3574
I560
atp3575
s(I5
I114
tp3576
(I4
(lp3577
I279
atp3578
s(I3
I30
tp3579
(I4
(lp3580
I675
atp3581
s(I0
I140
tp3582
(I0
(lp3583
I5
atp3584
s(I1
I50
tp3585
(I4
(lp3586
I619
atp3587
s(I3
I137
tp3588
(I2
(lp3589
I50
atp3590
s(I2
I57
tp3591
(I4
(lp3592
I647
atp3593
s(I0
I41
tp3594
(I4
(lp3595
I587
atp3596
s(I4
I130
tp3597
(I3
(lp3598
I75
atp3599
s(I3
I36
tp3600
(I4
(lp3601
I681
atp3602
s(I6
I19
tp3603
(I4
(lp3604
I794
atp3605
s(I4
I39
tp3606
(I4
(lp3607
I749
atp3608
s(I2
I83
tp3609
(I4
(lp3610
I433
atp3611
s(I8
I34
tp3612
(I4
(lp3613
I105
atp3614
s(I7
I26
tp3615
(I4
(lp3616
I840
atp3617
s(I5
I38
tp3618
(I4
(lp3619
I203
atp3620
s(I0
I79
tp3621
(I4
(lp3622
I549
atp3623
s(I9
I35
tp3624
(I4
(lp3625
I175
atp3626
s(I6
I53
tp3627
(I4
(lp3628
I760
atp3629
s(I4
I77
tp3630
(I4
(lp3631
I335
atp3632
s(I1
I69
tp3633
(I4
(lp3634
I450
atp3635
s(I2
I77
tp3636
(I4
(lp3637
I439
atp3638
s(I8
I8
tp3639
(I4
(lp3640
I131
atp3641
s(I0
I101
tp3642
(I4
(lp3643
I527
atp3644
s(I0
I119
tp3645
(I4
(lp3646
I509
atp3647
s(I9
I5
tp3648
(I4
(lp3649
I145
atp3650
s(I6
I46
tp3651
(I4
(lp3652
I767
atp3653
s(I3
I91
tp3654
(I4
(lp3655
I360
atp3656
s(I4
I107
tp3657
(I4
(lp3658
I305
atp3659
s(I1
I127
tp3660
(I1
(lp3661
I20
atp3662
s(I2
I103
tp3663
(I4
(lp3664
I413
atp3665
s(I4
I74
tp3666
(I4
(lp3667
I338
atp3668
s(I5
I81
tp3669
(I4
(lp3670
I246
atp3671
s(I3
I97
tp3672
(I4
(lp3673
I366
atp3674
s(I4
I113
tp3675
(I4
(lp3676
I299
atp3677
s(I5
I123
tp3678
(I4
(lp3679
I288
atp3680
s(I0
I131
tp3681
(I0
(lp3682
I14
atp3683
s(I3
I142
tp3684
(I2
(lp3685
I55
atp3686
s(I0
I122
tp3687
(I4
(lp3688
I506
atp3689
s(I2
I48
tp3690
(I4
(lp3691
I656
atp3692
s(I0
I32
tp3693
(I4
(lp3694
I596
atp3695
s(I4
I137
tp3696
(I3
(lp3697
I68
atp3698
s(I3
I45
tp3699
(I4
(lp3700
I690
atp3701
s(I1
I45
tp3702
(I4
(lp3703
I614
atp3704
s(I6
I10
tp3705
(I4
(lp3706
I803
atp3707
s(I4
I46
tp3708
(I4
(lp3709
I742
atp3710
s(I2
I42
tp3711
(I4
(lp3712
I662
atp3713
s(I8
I41
tp3714
(I4
(lp3715
I98
atp3716
s(I0
I70
tp3717
(I4
(lp3718
I558
atp3719
s(I5
I47
tp3720
(I4
(lp3721
I212
atp3722
s(I3
I51
tp3723
(I4
(lp3724
I696
atp3725
s(I9
I36
tp3726
(I4
(lp3727
I176
atp3728
s(I6
I44
tp3729
(I4
(lp3730
I769
atp3731
s(I4
I52
tp3732
(I4
(lp3733
I736
atp3734
s(I1
I94
tp3735
(I4
(lp3736
I475
atp3737
s(I2
I68
tp3738
(I4
(lp3739
I448
atp3740
s(I8
I15
tp3741
(I4
(lp3742
I124
atp3743
s(I7
I41
tp3744
(I4
(lp3745
I855
atp3746
s(I9
I14
tp3747
(I4
(lp3748
I154
atp3749
s(I7
I10
tp3750
(I4
(lp3751
I824
atp3752
s(I3
I64
tp3753
(I4
(lp3754
I709
atp3755
s(I4
I82
tp3756
(I4
(lp3757
I330
atp3758
s(I1
I112
tp3759
(I4
(lp3760
I493
atp3761
s(I8
I21
tp3762
(I4
(lp3763
I118
atp3764
s(I9
I16
tp3765
(I4
(lp3766
I156
atp3767
s(I5
I90
tp3768
(I4
(lp3769
I255
atp3770
s(I3
I102
tp3771
(I4
(lp3772
I371
atp3773
s(I4
I120
tp3774
(I4
(lp3775
I292
atp3776
s(I1
I106
tp3777
(I4
(lp3778
I487
atp3779
s(I5
I100
tp3780
(I4
(lp3781
I265
atp3782
s(I0
I39
tp3783
(I4
(lp3784
I589
atp3785
s(I0
I66
tp3786
(I4
(lp3787
I562
atp3788
s(I1
I38
tp3789
(I4
(lp3790
I607
atp3791
s(I6
I13
tp3792
(I4
(lp3793
I800
atp3794
s(I2
I37
tp3795
(I4
(lp3796
I667
atp3797
s(I7
I8
tp3798
(I4
(lp3799
I822
atp3800
s(I5
I40
tp3801
(I4
(lp3802
I205
atp3803
s(I0
I48
tp3804
(I4
(lp3805
I580
atp3806
s(I3
I56
tp3807
(I4
(lp3808
I701
atp3809
s(I9
I45
tp3810
(I4
(lp3811
I185
atp3812
s(I6
I39
tp3813
(I4
(lp3814
I774
atp3815
s(I4
I51
tp3816
(I4
(lp3817
I737
atp3818
s(I1
I87
tp3819
(I4
(lp3820
I468
atp3821
s(I2
I95
tp3822
(I4
(lp3823
I421
atp3824
s(I8
I54
tp3825
(I4
(lp3826
I85
atp3827
s(I7
I38
tp3828
(I4
(lp3829
I852
atp3830
s(I5
I50
tp3831
(I4
(lp3832
I215
atp3833
s(I9
I55
tp3834
(I4
(lp3835
I195
atp3836
s(I6
I57
tp3837
(I4
(lp3838
I756
atp3839
s(I3
I73
tp3840
(I4
(lp3841
I342
atp3842
s(I4
I89
tp3843
(I4
(lp3844
I323
atp3845
s(I1
I73
tp3846
(I4
(lp3847
I454
atp3848
s(I2
I121
tp3849
(I4
(lp3850
I395
atp3851
s(I8
I28
tp3852
(I4
(lp3853
I111
atp3854
s(I0
I105
tp3855
(I4
(lp3856
I523
atp3857
s(I7
I32
tp3858
(I4
(lp3859
I846
atp3860
s(I9
I25
tp3861
(I4
(lp3862
I165
atp3863
s(I5
I67
tp3864
(I4
(lp3865
I232
atp3866
s(I3
I111
tp3867
(I4
(lp3868
I380
atp3869
s(I4
I103
tp3870
(I4
(lp3871
I309
atp3872
s(I1
I99
tp3873
(I4
(lp3874
I480
atp3875
s(I1
I142
tp3876
(I1
(lp3877
I35
atp3878
s(I5
I109
tp3879
(I4
(lp3880
I274
atp3881
s(I3
I117
tp3882
(I4
(lp3883
I386
atp3884
s(I0
I145
tp3885
(I0
(lp3886
I0
atp3887
s(I0
I99
tp3888
(I4
(lp3889
I529
atp3890
s(I0
I62
tp3891
(I4
(lp3892
I566
atp3893
s(I5
I119
tp3894
(I4
(lp3895
I284
atp3896
s(I1
I63
tp3897
(I4
(lp3898
I632
atp3899
s(I6
I4
tp3900
(I4
(lp3901
I809
atp3902
s(I3
I130
tp3903
(I2
(lp3904
I43
atp3905
s(I0
I120
tp3906
(I4
(lp3907
I508
atp3908
s(I2
I60
tp3909
(I4
(lp3910
I644
atp3911
s(I0
I84
tp3912
(I4
(lp3913
I544
atp3914
s(I4
I133
tp3915
(I3
(lp3916
I72
atp3917
s(I3
I33
tp3918
(I4
(lp3919
I678
atp3920
s(I6
I30
tp3921
(I4
(lp3922
I783
atp3923
s(I4
I58
tp3924
(I4
(lp3925
I730
atp3926
s(I2
I86
tp3927
(I4
(lp3928
I430
atp3929
s(I0
I74
tp3930
(I4
(lp3931
I554
atp3932
s(I5
I59
tp3933
(I4
(lp3934
I224
atp3935
s(I9
I56
tp3936
(I4
(lp3937
I196
atp3938
s(I6
I48
tp3939
(I4
(lp3940
I765
atp3941
s(I3
I78
tp3942
(I4
(lp3943
I347
atp3944
s(I4
I64
tp3945
(I4
(lp3946
I724
atp3947
s(I1
I66
tp3948
(I4
(lp3949
I635
atp3950
s(I2
I112
tp3951
(I4
(lp3952
I404
atp3953
s(I8
I3
tp3954
(I4
(lp3955
I136
atp3956
s(I0
I96
tp3957
(I4
(lp3958
I532
atp3959
s(I9
I2
tp3960
(I4
(lp3961
I142
atp3962
s(I0
I93
tp3963
(I4
(lp3964
I535
atp3965
s(I5
I76
tp3966
(I4
(lp3967
I241
atp3968
s(I3
I84
tp3969
(I4
(lp3970
I353
atp3971
s(I4
I110
tp3972
(I4
(lp3973
I302
atp3974
s(I1
I100
tp3975
(I4
(lp3976
I481
atp3977
s(I2
I106
tp3978
(I4
(lp3979
I410
atp3980
s(I0
I31
tp3981
(I4
(lp3982
I597
atp3983
s(I1
I135
tp3984
(I1
(lp3985
I28
atp3986
s(I5
I86
tp3987
(I4
(lp3988
I251
atp3989
s(I3
I122
tp3990
(I4
(lp3991
I391
atp3992
s(I4
I116
tp3993
(I4
(lp3994
I296
atp3995
s(I1
I30
tp3996
(I4
(lp3997
I599
atp3998
s(I0
I53
tp3999
(I4
(lp4000
I575
atp4001
s(I5
I112
tp4002
(I4
(lp4003
I277
atp4004
s(I0
I142
tp4005
(I0
(lp4006
I3
atp4007
s(I1
I48
tp4008
(I4
(lp4009
I617
atp4010
s(I3
I139
tp4011
(I2
(lp4012
I52
atp4013
s(I2
I55
tp4014
(I4
(lp4015
I649
atp4016
s(I0
I43
tp4017
(I4
(lp4018
I585
atp4019
s(I0
I64
tp4020
(I4
(lp4021
I564
atp4022
s(I3
I38
tp4023
(I4
(lp4024
I683
atp4025
s(I1
I42
tp4026
(I4
(lp4027
I611
atp4028
s(I6
I17
tp4029
(I4
(lp4030
I796
atp4031
s(I3
I145
tp4032
(I2
(lp4033
I58
atp4034
s(I2
I81
tp4035
(I4
(lp4036
I435
atp4037
s(I8
I36
tp4038
(I4
(lp4039
I103
atp4040
s(I0
I65
tp4041
(I4
(lp4042
I563
atp4043
s(I5
I36
tp4044
(I4
(lp4045
I201
atp4046
s(I4
I70
tp4047
(I4
(lp4048
I718
atp4049
s(I9
I33
tp4050
(I4
(lp4051
I173
atp4052
s(I6
I43
tp4053
(I4
(lp4054
I770
atp4055
s(I4
I79
tp4056
(I4
(lp4057
I333
atp4058
s(I1
I91
tp4059
(I4
(lp4060
I472
atp4061
s(I2
I75
tp4062
(I4
(lp4063
I441
atp4064
s(I8
I10
tp4065
(I4
(lp4066
I129
atp4067
s(I0
I103
tp4068
(I4
(lp4069
I525
atp4070
s(I9
I11
tp4071
(I4
(lp4072
I151
atp4073
s(I3
I93
tp4074
(I4
(lp4075
I362
atp4076
s(I4
I85
tp4077
(I4
(lp4078
I327
atp4079
s(I2
I101
tp4080
(I4
(lp4081
I415
atp4082
s(I8
I16
tp4083
(I4
(lp4084
I123
atp4085
s(I0
I115
tp4086
(I4
(lp4087
I513
atp4088
s(I5
I95
tp4089
(I4
(lp4090
I260
atp4091
s(I3
I99
tp4092
(I4
(lp4093
I368
atp4094
s(I4
I115
tp4095
(I4
(lp4096
I297
atp4097
s(I5
I121
tp4098
(I4
(lp4099
I286
atp4100
s(I0
I133
tp4101
(I0
(lp4102
I12
atp4103
s(I0
I89
tp4104
(I4
(lp4105
I539
atp4106
s(I0
I34
tp4107
(I4
(lp4108
I594
atp4109
s(I4
I139
tp4110
(I3
(lp4111
I66
atp4112
s(I3
I47
tp4113
(I4
(lp4114
I692
atp4115
s(I1
I35
tp4116
(I4
(lp4117
I604
atp4118
s(I6
I8
tp4119
(I4
(lp4120
I805
atp4121
s(I7
I51
tp4122
(I4
(lp4123
I865
atp4124
s(I2
I40
tp4125
(I4
(lp4126
I664
atp4127
s(I8
I43
tp4128
(I4
(lp4129
I96
atp4130
s(I0
I88
tp4131
(I4
(lp4132
I540
atp4133
s(I4
I145
tp4134
(I3
(lp4135
I60
atp4136
s(I5
I45
tp4137
(I4
(lp4138
I210
atp4139
s(I7
I2
tp4140
(I4
(lp4141
I816
atp4142
s(I3
I53
tp4143
(I4
(lp4144
I698
atp4145
s(I9
I42
tp4146
(I4
(lp4147
I182
atp4148
s(I6
I34
tp4149
(I4
(lp4150
I779
atp4151
s(I4
I54
tp4152
(I4
(lp4153
I734
atp4154
s(I0
I109
tp4155
(I4
(lp4156
I519
atp4157
s(I2
I66
tp4158
(I4
(lp4159
I638
atp4160
s(I4
I140
tp4161
(I3
(lp4162
I65
atp4163
s(I0
I126
tp4164
(I0
(lp4165
I19
atp4166
s(I5
I55
tp4167
(I4
(lp4168
I220
atp4169
s(I9
I12
tp4170
(I4
(lp4171
I152
atp4172
s(I7
I20
tp4173
(I4
(lp4174
I834
atp4175
s(I3
I66
tp4176
(I4
(lp4177
I711
atp4178
s(I4
I92
tp4179
(I4
(lp4180
I320
atp4181
s(I1
I118
tp4182
(I4
(lp4183
I499
atp4184
s(I8
I23
tp4185
(I4
(lp4186
I116
atp4187
s(I9
I22
tp4188
(I4
(lp4189
I162
atp4190
s(I7
I14
tp4191
(I4
(lp4192
I828
atp4193
s(I5
I88
tp4194
(I4
(lp4195
I253
atp4196
s(I3
I104
tp4197
(I4
(lp4198
I373
atp4199
s(I4
I122
tp4200
(I4
(lp4201
I290
atp4202
s(I1
I104
tp4203
(I4
(lp4204
I485
atp4205
s(I1
I139
tp4206
(I1
(lp4207
I32
atp4208
s(I5
I98
tp4209
(I4
(lp4210
I263
atp4211
s(I4
I84
tp4212
(I4
(lp4213
I328
atp4214
s(I0
I57
tp4215
(I4
(lp4216
I571
atp4217
s(I1
I36
tp4218
(I4
(lp4219
I605
atp4220
s(I6
I3
tp4221
(I4
(lp4222
I810
atp4223
s(I0
I100
tp4224
(I4
(lp4225
I528
atp4226
s(I2
I35
tp4227
(I4
(lp4228
I669
atp4229
s(I0
I95
tp4230
(I4
(lp4231
I533
atp4232
s(I0
I78
tp4233
(I4
(lp4234
I550
atp4235
s(I3
I58
tp4236
(I4
(lp4237
I703
atp4238
s(I6
I37
tp4239
(I4
(lp4240
I776
atp4241
s(I4
I61
tp4242
(I4
(lp4243
I727
atp4244
s(I1
I85
tp4245
(I4
(lp4246
I466
atp4247
s(I2
I93
tp4248
(I4
(lp4249
I423
atp4250
s(I8
I56
tp4251
(I4
(lp4252
I83
atp4253
s(I0
I117
tp4254
(I4
(lp4255
I511
atp4256
s(I5
I48
tp4257
(I4
(lp4258
I213
atp4259
s(I9
I53
tp4260
(I4
(lp4261
I193
atp4262
s(I3
I75
tp4263
(I4
(lp4264
I344
atp4265
s(I4
I91
tp4266
(I4
(lp4267
I321
atp4268
s(I1
I79
tp4269
(I4
(lp4270
I460
atp4271
s(I2
I119
tp4272
(I4
(lp4273
I397
atp4274
s(I8
I30
tp4275
(I4
(lp4276
I109
atp4277
s(I0
I107
tp4278
(I4
(lp4279
I521
atp4280
s(I9
I31
tp4281
(I4
(lp4282
I171
atp4283
s(I5
I65
tp4284
(I4
(lp4285
I230
atp4286
s(I3
I81
tp4287
(I4
(lp4288
I350
atp4289
s(I4
I97
tp4290
(I4
(lp4291
I315
atp4292
s(I1
I97
tp4293
(I4
(lp4294
I478
atp4295
s(I0
I113
tp4296
(I4
(lp4297
I515
atp4298
s(I1
I140
tp4299
(I1
(lp4300
I33
atp4301
s(I5
I107
tp4302
(I4
(lp4303
I272
atp4304
s(I3
I119
tp4305
(I4
(lp4306
I388
atp4307
s(I4
I76
tp4308
(I4
(lp4309
I336
atp4310
s(I5
I117
tp4311
(I4
(lp4312
I282
atp4313
s(I0
I137
tp4314
(I0
(lp4315
I8
atp4316
s(I1
I61
tp4317
(I4
(lp4318
I630
atp4319
s(I3
I132
tp4320
(I2
(lp4321
I45
atp4322
s(I2
I58
tp4323
(I4
(lp4324
I646
atp4325
ssb(dp4326
I0
(I17
I9
tp4327
sI1
(I16
I9
tp4328
sI2
(I16
I10
tp4329
sI3
(I16
I11
tp4330
sI4
(I17
I11
tp4331
sI5
(I17
I10
tp4332
sI6
(I14
I4
tp4333
sI7
(I13
I4
tp4334
sI8
(I15
I5
tp4335
sI9
(I14
I5
tp4336
stp4337
.