(ccopy_reg
_reconstructor
p0
(corigami_utils
vhelix_vbase_to_nucleotide
p1
c__builtin__
object
p2
Ntp3
Rp4
(dp5
S'strand_count'
p6
I0
sS'nuc_count'
p7
I0
sS'_stap'
p8
(dp9
(I5
I68
tp10
(I7
(lp11
I477
atp12
s(I4
I41
tp13
(I8
(lp14
I545
atp15
s(I3
I35
tp16
(I8
(lp17
I538
atp18
s(I2
I41
tp19
(I8
(lp20
I517
atp21
s(I5
I44
tp22
(I3
(lp23
I356
atp24
s(I4
I36
tp25
(I8
(lp26
I540
atp27
s(I3
I52
tp28
(I5
(lp29
I397
atp30
s(I0
I76
tp31
(I6
(lp32
I442
atp33
s(I5
I57
tp34
(I4
(lp35
I364
atp36
s(I4
I55
tp37
(I8
(lp38
I559
atp39
s(I2
I67
tp40
(I6
(lp41
I461
atp42
s(I5
I54
tp43
(I4
(lp44
I367
atp45
s(I4
I66
tp46
(I7
(lp47
I486
atp48
s(I1
I64
tp49
(I6
(lp50
I455
atp51
s(I2
I78
tp52
(I7
(lp53
I512
atp54
s(I0
I61
tp55
(I4
(lp56
I385
atp57
s(I3
I69
tp58
(I6
(lp59
I464
atp60
s(I2
I48
tp61
(I8
(lp62
I524
atp63
s(I1
I56
tp64
(I5
(lp65
I421
atp66
s(I5
I74
tp67
(I7
(lp68
I471
atp69
s(I3
I45
tp70
(I8
(lp71
I528
atp72
s(I2
I63
tp73
(I6
(lp74
I457
atp75
s(I1
I45
tp76
(I3
(lp77
I327
atp78
s(I5
I71
tp79
(I7
(lp80
I474
atp81
s(I4
I46
tp82
(I8
(lp83
I550
atp84
s(I3
I62
tp85
(I5
(lp86
I387
atp87
s(I2
I42
tp88
(I8
(lp89
I518
atp90
s(I0
I70
tp91
(I6
(lp92
I436
atp93
s(I5
I47
tp94
(I3
(lp95
I353
atp96
s(I4
I57
tp97
(I8
(lp98
I561
atp99
s(I3
I51
tp100
(I5
(lp101
I398
atp102
s(I0
I73
tp103
(I6
(lp104
I439
atp105
s(I5
I60
tp106
(I8
(lp107
I569
atp108
s(I4
I52
tp109
(I8
(lp110
I556
atp111
s(I2
I68
tp112
(I6
(lp113
I462
atp114
s(I0
I55
tp115
(I4
(lp116
I379
atp117
s(I4
I71
tp118
(I7
(lp119
I491
atp120
s(I1
I67
tp121
(I6
(lp122
I452
atp123
s(I1
I54
tp124
(I5
(lp125
I423
atp126
s(I0
I58
tp127
(I4
(lp128
I382
atp129
s(I3
I64
tp130
(I6
(lp131
I469
atp132
s(I2
I53
tp133
(I5
(lp134
I405
atp135
s(I1
I59
tp136
(I5
(lp137
I418
atp138
s(I0
I45
tp139
(I3
(lp140
I348
atp141
s(I3
I40
tp142
(I8
(lp143
I533
atp144
s(I1
I40
tp145
(I3
(lp146
I332
atp147
s(I4
I35
tp148
(I8
(lp149
I539
atp150
s(I3
I61
tp151
(I5
(lp152
I388
atp153
s(I2
I47
tp154
(I8
(lp155
I523
atp156
s(I0
I67
tp157
(I6
(lp158
I433
atp159
s(I4
I62
tp160
(I8
(lp161
I566
atp162
s(I5
I63
tp163
(I7
(lp164
I482
atp165
s(I4
I73
tp166
(I7
(lp167
I493
atp168
s(I2
I73
tp169
(I7
(lp170
I507
atp171
s(I0
I52
tp172
(I4
(lp173
I376
atp174
s(I3
I74
tp175
(I7
(lp176
I499
atp177
s(I4
I68
tp178
(I7
(lp179
I488
atp180
s(I1
I49
tp181
(I5
(lp182
I428
atp183
s(I0
I39
tp184
(I3
(lp185
I342
atp186
s(I2
I54
tp187
(I5
(lp188
I406
atp189
s(I1
I38
tp190
(I3
(lp191
I334
atp192
s(I0
I42
tp193
(I3
(lp194
I345
atp195
s(I5
I64
tp196
(I7
(lp197
I481
atp198
s(I3
I39
tp199
(I8
(lp200
I534
atp201
s(I2
I37
tp202
(I8
(lp203
I513
atp204
s(I1
I43
tp205
(I3
(lp206
I329
atp207
s(I5
I40
tp208
(I3
(lp209
I360
atp210
s(I3
I56
tp211
(I5
(lp212
I393
atp213
s(I0
I64
tp214
(I6
(lp215
I430
atp216
s(I5
I37
tp217
(I3
(lp218
I363
atp219
s(I4
I51
tp220
(I8
(lp221
I555
atp222
s(I5
I50
tp223
(I4
(lp224
I371
atp225
s(I1
I68
tp226
(I6
(lp227
I451
atp228
s(I2
I74
tp229
(I7
(lp230
I508
atp231
s(I0
I49
tp232
(I4
(lp233
I373
atp234
s(I3
I73
tp235
(I7
(lp236
I500
atp237
s(I1
I73
tp238
(I6
(lp239
I446
atp240
s(I1
I60
tp241
(I5
(lp242
I417
atp243
s(I0
I36
tp244
(I3
(lp245
I339
atp246
s(I2
I59
tp247
(I5
(lp248
I411
atp249
s(I5
I67
tp250
(I7
(lp251
I478
atp252
s(I4
I42
tp253
(I8
(lp254
I546
atp255
s(I2
I38
tp256
(I8
(lp257
I514
atp258
s(I5
I43
tp259
(I3
(lp260
I357
atp261
s(I4
I37
tp262
(I8
(lp263
I541
atp264
s(I3
I55
tp265
(I5
(lp266
I394
atp267
s(I5
I56
tp268
(I4
(lp269
I365
atp270
s(I4
I48
tp271
(I8
(lp272
I552
atp273
s(I2
I64
tp274
(I6
(lp275
I458
atp276
s(I5
I53
tp277
(I4
(lp278
I368
atp279
s(I4
I67
tp280
(I7
(lp281
I487
atp282
s(I1
I71
tp283
(I6
(lp284
I448
atp285
s(I0
I62
tp286
(I4
(lp287
I386
atp288
s(I3
I68
tp289
(I6
(lp290
I465
atp291
s(I2
I49
tp292
(I5
(lp293
I401
atp294
s(I1
I63
tp295
(I6
(lp296
I456
atp297
s(I5
I73
tp298
(I7
(lp299
I472
atp300
s(I3
I44
tp301
(I8
(lp302
I529
atp303
s(I2
I60
tp304
(I5
(lp305
I412
atp306
s(I1
I44
tp307
(I3
(lp308
I328
atp309
s(I5
I70
tp310
(I7
(lp311
I475
atp312
s(I4
I47
tp313
(I8
(lp314
I551
atp315
s(I2
I43
tp316
(I8
(lp317
I519
atp318
s(I0
I71
tp319
(I6
(lp320
I437
atp321
s(I5
I46
tp322
(I3
(lp323
I354
atp324
s(I4
I58
tp325
(I8
(lp326
I562
atp327
s(I3
I50
tp328
(I5
(lp329
I399
atp330
s(I0
I74
tp331
(I6
(lp332
I440
atp333
s(I5
I59
tp334
(I8
(lp335
I570
atp336
s(I4
I53
tp337
(I8
(lp338
I557
atp339
s(I2
I69
tp340
(I6
(lp341
I463
atp342
s(I4
I64
tp343
(I7
(lp344
I484
atp345
s(I1
I66
tp346
(I6
(lp347
I453
atp348
s(I1
I53
tp349
(I5
(lp350
I424
atp351
s(I0
I59
tp352
(I4
(lp353
I383
atp354
s(I3
I67
tp355
(I6
(lp356
I466
atp357
s(I2
I50
tp358
(I5
(lp359
I402
atp360
s(I1
I58
tp361
(I5
(lp362
I419
atp363
s(I0
I46
tp364
(I3
(lp365
I349
atp366
s(I3
I43
tp367
(I8
(lp368
I530
atp369
s(I1
I47
tp370
(I3
(lp371
I325
atp372
s(I4
I44
tp373
(I8
(lp374
I548
atp375
s(I3
I60
tp376
(I5
(lp377
I389
atp378
s(I2
I44
tp379
(I8
(lp380
I520
atp381
s(I0
I68
tp382
(I6
(lp383
I434
atp384
s(I4
I63
tp385
(I7
(lp386
I483
atp387
s(I3
I49
tp388
(I5
(lp389
I400
atp390
s(I5
I62
tp391
(I8
(lp392
I567
atp393
s(I4
I74
tp394
(I7
(lp395
I494
atp396
s(I2
I70
tp397
(I7
(lp398
I504
atp399
s(I0
I53
tp400
(I4
(lp401
I377
atp402
s(I4
I69
tp403
(I7
(lp404
I489
atp405
s(I1
I48
tp406
(I3
(lp407
I324
atp408
s(I0
I56
tp409
(I4
(lp410
I380
atp411
s(I2
I55
tp412
(I5
(lp413
I407
atp414
s(I1
I37
tp415
(I3
(lp416
I335
atp417
s(I0
I43
tp418
(I3
(lp419
I346
atp420
s(I3
I38
tp421
(I8
(lp422
I535
atp423
s(I1
I42
tp424
(I3
(lp425
I330
atp426
s(I3
I59
tp427
(I5
(lp428
I390
atp429
s(I0
I65
tp430
(I6
(lp431
I431
atp432
s(I4
I60
tp433
(I8
(lp434
I564
atp435
s(I5
I49
tp436
(I4
(lp437
I372
atp438
s(I2
I75
tp439
(I7
(lp440
I509
atp441
s(I0
I50
tp442
(I4
(lp443
I374
atp444
s(I3
I72
tp445
(I7
(lp446
I501
atp447
s(I1
I72
tp448
(I6
(lp449
I447
atp450
s(I1
I51
tp451
(I5
(lp452
I426
atp453
s(I0
I37
tp454
(I3
(lp455
I340
atp456
s(I2
I56
tp457
(I5
(lp458
I408
atp459
s(I0
I40
tp460
(I3
(lp461
I343
atp462
s(I5
I66
tp463
(I7
(lp464
I479
atp465
s(I4
I43
tp466
(I8
(lp467
I547
atp468
s(I3
I37
tp469
(I8
(lp470
I536
atp471
s(I2
I39
tp472
(I8
(lp473
I515
atp474
s(I5
I42
tp475
(I3
(lp476
I358
atp477
s(I4
I38
tp478
(I8
(lp479
I542
atp480
s(I3
I54
tp481
(I5
(lp482
I395
atp483
s(I5
I39
tp484
(I3
(lp485
I361
atp486
s(I4
I49
tp487
(I8
(lp488
I553
atp489
s(I2
I65
tp490
(I6
(lp491
I459
atp492
s(I5
I52
tp493
(I4
(lp494
I369
atp495
s(I4
I76
tp496
(I7
(lp497
I496
atp498
s(I1
I70
tp499
(I6
(lp500
I449
atp501
s(I2
I76
tp502
(I7
(lp503
I510
atp504
s(I0
I63
tp505
(I6
(lp506
I429
atp507
s(I3
I71
tp508
(I7
(lp509
I502
atp510
s(I1
I75
tp511
(I6
(lp512
I444
atp513
s(I1
I62
tp514
(I5
(lp515
I415
atp516
s(I5
I72
tp517
(I7
(lp518
I473
atp519
s(I3
I47
tp520
(I8
(lp521
I526
atp522
s(I2
I61
tp523
(I5
(lp524
I413
atp525
s(I1
I35
tp526
(I3
(lp527
I337
atp528
s(I5
I69
tp529
(I7
(lp530
I476
atp531
s(I4
I40
tp532
(I8
(lp533
I544
atp534
s(I2
I40
tp535
(I8
(lp536
I516
atp537
s(I5
I45
tp538
(I3
(lp539
I355
atp540
s(I4
I59
tp541
(I8
(lp542
I563
atp543
s(I3
I53
tp544
(I5
(lp545
I396
atp546
s(I0
I75
tp547
(I6
(lp548
I441
atp549
s(I5
I58
tp550
(I8
(lp551
I571
atp552
s(I4
I54
tp553
(I8
(lp554
I558
atp555
s(I2
I66
tp556
(I6
(lp557
I460
atp558
s(I5
I55
tp559
(I4
(lp560
I366
atp561
s(I4
I65
tp562
(I7
(lp563
I485
atp564
s(I1
I65
tp565
(I6
(lp566
I454
atp567
s(I1
I52
tp568
(I5
(lp569
I425
atp570
s(I0
I60
tp571
(I4
(lp572
I384
atp573
s(I3
I66
tp574
(I6
(lp575
I467
atp576
s(I2
I51
tp577
(I5
(lp578
I403
atp579
s(I1
I57
tp580
(I5
(lp581
I420
atp582
s(I0
I47
tp583
(I3
(lp584
I350
atp585
s(I3
I42
tp586
(I8
(lp587
I531
atp588
s(I2
I62
tp589
(I5
(lp590
I414
atp591
s(I1
I46
tp592
(I3
(lp593
I326
atp594
s(I4
I45
tp595
(I8
(lp596
I549
atp597
s(I3
I63
tp598
(I6
(lp599
I470
atp600
s(I2
I45
tp601
(I8
(lp602
I521
atp603
s(I0
I69
tp604
(I6
(lp605
I435
atp606
s(I4
I56
tp607
(I8
(lp608
I560
atp609
s(I3
I48
tp610
(I8
(lp611
I525
atp612
s(I0
I72
tp613
(I6
(lp614
I438
atp615
s(I5
I61
tp616
(I8
(lp617
I568
atp618
s(I4
I75
tp619
(I7
(lp620
I495
atp621
s(I2
I71
tp622
(I7
(lp623
I505
atp624
s(I0
I54
tp625
(I4
(lp626
I378
atp627
s(I3
I76
tp628
(I7
(lp629
I497
atp630
s(I4
I70
tp631
(I7
(lp632
I490
atp633
s(I1
I76
tp634
(I6
(lp635
I443
atp636
s(I1
I55
tp637
(I5
(lp638
I422
atp639
s(I0
I57
tp640
(I4
(lp641
I381
atp642
s(I3
I65
tp643
(I6
(lp644
I468
atp645
s(I2
I52
tp646
(I5
(lp647
I404
atp648
s(I1
I36
tp649
(I3
(lp650
I336
atp651
s(I0
I44
tp652
(I3
(lp653
I347
atp654
s(I3
I41
tp655
(I8
(lp656
I532
atp657
s(I1
I41
tp658
(I3
(lp659
I331
atp660
s(I3
I58
tp661
(I5
(lp662
I391
atp663
s(I2
I46
tp664
(I8
(lp665
I522
atp666
s(I0
I66
tp667
(I6
(lp668
I432
atp669
s(I4
I61
tp670
(I8
(lp671
I565
atp672
s(I5
I48
tp673
(I3
(lp674
I352
atp675
s(I4
I72
tp676
(I7
(lp677
I492
atp678
s(I2
I72
tp679
(I7
(lp680
I506
atp681
s(I0
I51
tp682
(I4
(lp683
I375
atp684
s(I3
I75
tp685
(I7
(lp686
I498
atp687
s(I1
I50
tp688
(I5
(lp689
I427
atp690
s(I0
I38
tp691
(I3
(lp692
I341
atp693
s(I2
I57
tp694
(I5
(lp695
I409
atp696
s(I1
I39
tp697
(I3
(lp698
I333
atp699
s(I0
I41
tp700
(I3
(lp701
I344
atp702
s(I5
I65
tp703
(I7
(lp704
I480
atp705
s(I3
I36
tp706
(I8
(lp707
I537
atp708
s(I5
I41
tp709
(I3
(lp710
I359
atp711
s(I4
I39
tp712
(I8
(lp713
I543
atp714
s(I3
I57
tp715
(I5
(lp716
I392
atp717
s(I5
I38
tp718
(I3
(lp719
I362
atp720
s(I4
I50
tp721
(I8
(lp722
I554
atp723
s(I5
I51
tp724
(I4
(lp725
I370
atp726
s(I1
I69
tp727
(I6
(lp728
I450
atp729
s(I2
I77
tp730
(I7
(lp731
I511
atp732
s(I0
I48
tp733
(I3
(lp734
I351
atp735
s(I3
I70
tp736
(I7
(lp737
I503
atp738
s(I1
I74
tp739
(I6
(lp740
I445
atp741
s(I1
I61
tp742
(I5
(lp743
I416
atp744
s(I0
I35
tp745
(I3
(lp746
I338
atp747
s(I3
I46
tp748
(I8
(lp749
I527
atp750
s(I2
I58
tp751
(I5
(lp752
I410
atp753
ssS'_scaf'
p754
(dp755
(I5
I68
tp756
(I0
(lp757
I158
atp758
s(I4
I41
tp759
(I0
(lp760
I122
atp761
s(I3
I35
tp762
(I0
(lp763
I35
atp764
s(I2
I41
tp765
(I1
(lp766
I257
atp767
s(I0
I20
tp768
(I0
(lp769
I219
atp770
s(I4
I81
tp771
(I0
(lp772
I82
atp773
s(I5
I44
tp774
(I0
(lp775
I134
atp776
s(I3
I52
tp777
(I0
(lp778
I52
atp779
s(I0
I7
tp780
(I0
(lp781
I232
atp782
s(I5
I57
tp783
(I0
(lp784
I147
atp785
s(I4
I55
tp786
(I0
(lp787
I108
atp788
s(I2
I67
tp789
(I2
(lp790
I315
atp791
s(I0
I10
tp792
(I0
(lp793
I229
atp794
s(I5
I54
tp795
(I0
(lp796
I144
atp797
s(I4
I66
tp798
(I0
(lp799
I97
atp800
s(I1
I64
tp801
(I2
(lp802
I289
atp803
s(I2
I78
tp804
(I2
(lp805
I304
atp806
s(I0
I61
tp807
(I0
(lp808
I178
atp809
s(I3
I69
tp810
(I0
(lp811
I69
atp812
s(I3
I24
tp813
(I0
(lp814
I24
atp815
s(I2
I48
tp816
(I1
(lp817
I250
atp818
s(I1
I56
tp819
(I2
(lp820
I281
atp821
s(I0
I32
tp822
(I0
(lp823
I207
atp824
s(I5
I74
tp825
(I0
(lp826
I164
atp827
s(I3
I45
tp828
(I0
(lp829
I45
atp830
s(I2
I63
tp831
(I2
(lp832
I319
atp833
s(I1
I45
tp834
(I1
(lp835
I270
atp836
s(I5
I71
tp837
(I0
(lp838
I161
atp839
s(I4
I46
tp840
(I0
(lp841
I117
atp842
s(I3
I62
tp843
(I0
(lp844
I62
atp845
s(I2
I42
tp846
(I1
(lp847
I256
atp848
s(I0
I17
tp849
(I0
(lp850
I222
atp851
s(I0
I70
tp852
(I0
(lp853
I169
atp854
s(I5
I47
tp855
(I0
(lp856
I137
atp857
s(I4
I57
tp858
(I0
(lp859
I106
atp860
s(I3
I51
tp861
(I0
(lp862
I51
atp863
s(I0
I4
tp864
(I0
(lp865
I235
atp866
s(I0
I73
tp867
(I0
(lp868
I166
atp869
s(I3
I3
tp870
(I0
(lp871
I3
atp872
s(I5
I60
tp873
(I0
(lp874
I150
atp875
s(I4
I52
tp876
(I0
(lp877
I111
atp878
s(I2
I68
tp879
(I2
(lp880
I314
atp881
s(I0
I55
tp882
(I0
(lp883
I184
atp884
s(I3
I79
tp885
(I0
(lp886
I79
atp887
s(I4
I71
tp888
(I0
(lp889
I92
atp890
s(I1
I67
tp891
(I2
(lp892
I292
atp893
s(I1
I54
tp894
(I1
(lp895
I279
atp896
s(I0
I58
tp897
(I0
(lp898
I181
atp899
s(I3
I64
tp900
(I0
(lp901
I64
atp902
s(I3
I23
tp903
(I0
(lp904
I23
atp905
s(I2
I53
tp906
(I1
(lp907
I245
atp908
s(I1
I59
tp909
(I2
(lp910
I284
atp911
s(I0
I45
tp912
(I0
(lp913
I194
atp914
s(I3
I40
tp915
(I0
(lp916
I40
atp917
s(I1
I40
tp918
(I1
(lp919
I265
atp920
s(I3
I61
tp921
(I0
(lp922
I61
atp923
s(I2
I47
tp924
(I1
(lp925
I251
atp926
s(I0
I30
tp927
(I0
(lp928
I209
atp929
s(I0
I67
tp930
(I0
(lp931
I172
atp932
s(I4
I80
tp933
(I0
(lp934
I83
atp935
s(I4
I62
tp936
(I0
(lp937
I101
atp938
s(I0
I1
tp939
(I0
(lp940
I238
atp941
s(I5
I63
tp942
(I0
(lp943
I153
atp944
s(I4
I73
tp945
(I0
(lp946
I90
atp947
s(I2
I73
tp948
(I2
(lp949
I309
atp950
s(I0
I52
tp951
(I0
(lp952
I187
atp953
s(I3
I74
tp954
(I0
(lp955
I74
atp956
s(I4
I68
tp957
(I0
(lp958
I95
atp959
s(I1
I78
tp960
(I2
(lp961
I303
atp962
s(I1
I49
tp963
(I1
(lp964
I274
atp965
s(I0
I39
tp966
(I0
(lp967
I200
atp968
s(I3
I32
tp969
(I0
(lp970
I32
atp971
s(I3
I18
tp972
(I0
(lp973
I18
atp974
s(I2
I54
tp975
(I1
(lp976
I244
atp977
s(I1
I38
tp978
(I1
(lp979
I263
atp980
s(I0
I42
tp981
(I0
(lp982
I197
atp983
s(I5
I64
tp984
(I0
(lp985
I154
atp986
s(I3
I80
tp987
(I0
(lp988
I80
atp989
s(I3
I12
tp990
(I0
(lp991
I12
atp992
s(I2
I37
tp993
(I1
(lp994
I261
atp995
s(I1
I43
tp996
(I1
(lp997
I268
atp998
s(I5
I40
tp999
(I0
(lp1000
I130
atp1001
s(I0
I48
tp1002
(I0
(lp1003
I191
atp1004
s(I3
I56
tp1005
(I0
(lp1006
I56
atp1007
s(I0
I27
tp1008
(I0
(lp1009
I212
atp1010
s(I0
I64
tp1011
(I0
(lp1012
I175
atp1013
s(I5
I37
tp1014
(I0
(lp1015
I127
atp1016
s(I4
I51
tp1017
(I0
(lp1018
I112
atp1019
s(I0
I14
tp1020
(I0
(lp1021
I225
atp1022
s(I5
I50
tp1023
(I0
(lp1024
I140
atp1025
s(I4
I78
tp1026
(I0
(lp1027
I85
atp1028
s(I1
I68
tp1029
(I2
(lp1030
I293
atp1031
s(I2
I74
tp1032
(I2
(lp1033
I308
atp1034
s(I0
I49
tp1035
(I0
(lp1036
I190
atp1037
s(I3
I73
tp1038
(I0
(lp1039
I73
atp1040
s(I3
I28
tp1041
(I0
(lp1042
I28
atp1043
s(I1
I73
tp1044
(I2
(lp1045
I298
atp1046
s(I1
I60
tp1047
(I2
(lp1048
I285
atp1049
s(I0
I36
tp1050
(I0
(lp1051
I203
atp1052
s(I3
I17
tp1053
(I0
(lp1054
I17
atp1055
s(I2
I59
tp1056
(I2
(lp1057
I323
atp1058
s(I5
I67
tp1059
(I0
(lp1060
I157
atp1061
s(I4
I42
tp1062
(I0
(lp1063
I121
atp1064
s(I3
I34
tp1065
(I0
(lp1066
I34
atp1067
s(I2
I38
tp1068
(I1
(lp1069
I260
atp1070
s(I0
I21
tp1071
(I0
(lp1072
I218
atp1073
s(I5
I43
tp1074
(I0
(lp1075
I133
atp1076
s(I4
I37
tp1077
(I0
(lp1078
I126
atp1079
s(I3
I55
tp1080
(I0
(lp1081
I55
atp1082
s(I0
I24
tp1083
(I0
(lp1084
I215
atp1085
s(I5
I56
tp1086
(I0
(lp1087
I146
atp1088
s(I4
I48
tp1089
(I0
(lp1090
I115
atp1091
s(I2
I64
tp1092
(I2
(lp1093
I318
atp1094
s(I0
I11
tp1095
(I0
(lp1096
I228
atp1097
s(I5
I53
tp1098
(I0
(lp1099
I143
atp1100
s(I4
I67
tp1101
(I0
(lp1102
I96
atp1103
s(I1
I71
tp1104
(I2
(lp1105
I296
atp1106
s(I0
I62
tp1107
(I0
(lp1108
I177
atp1109
s(I3
I68
tp1110
(I0
(lp1111
I68
atp1112
s(I3
I27
tp1113
(I0
(lp1114
I27
atp1115
s(I2
I49
tp1116
(I1
(lp1117
I249
atp1118
s(I1
I63
tp1119
(I2
(lp1120
I288
atp1121
s(I0
I33
tp1122
(I0
(lp1123
I206
atp1124
s(I5
I73
tp1125
(I0
(lp1126
I163
atp1127
s(I3
I44
tp1128
(I0
(lp1129
I44
atp1130
s(I2
I60
tp1131
(I2
(lp1132
I322
atp1133
s(I1
I44
tp1134
(I1
(lp1135
I269
atp1136
s(I5
I70
tp1137
(I0
(lp1138
I160
atp1139
s(I4
I47
tp1140
(I0
(lp1141
I116
atp1142
s(I3
I33
tp1143
(I0
(lp1144
I33
atp1145
s(I2
I43
tp1146
(I1
(lp1147
I255
atp1148
s(I0
I18
tp1149
(I0
(lp1150
I221
atp1151
s(I0
I71
tp1152
(I0
(lp1153
I168
atp1154
s(I5
I46
tp1155
(I0
(lp1156
I136
atp1157
s(I4
I58
tp1158
(I0
(lp1159
I105
atp1160
s(I3
I50
tp1161
(I0
(lp1162
I50
atp1163
s(I0
I5
tp1164
(I0
(lp1165
I234
atp1166
s(I0
I74
tp1167
(I0
(lp1168
I165
atp1169
s(I5
I59
tp1170
(I0
(lp1171
I149
atp1172
s(I4
I53
tp1173
(I0
(lp1174
I110
atp1175
s(I2
I69
tp1176
(I2
(lp1177
I313
atp1178
s(I0
I8
tp1179
(I0
(lp1180
I231
atp1181
s(I3
I78
tp1182
(I0
(lp1183
I78
atp1184
s(I4
I64
tp1185
(I0
(lp1186
I99
atp1187
s(I1
I66
tp1188
(I2
(lp1189
I291
atp1190
s(I1
I53
tp1191
(I1
(lp1192
I278
atp1193
s(I0
I59
tp1194
(I0
(lp1195
I180
atp1196
s(I3
I67
tp1197
(I0
(lp1198
I67
atp1199
s(I3
I22
tp1200
(I0
(lp1201
I22
atp1202
s(I2
I50
tp1203
(I1
(lp1204
I248
atp1205
s(I1
I58
tp1206
(I2
(lp1207
I283
atp1208
s(I0
I46
tp1209
(I0
(lp1210
I193
atp1211
s(I4
I79
tp1212
(I0
(lp1213
I84
atp1214
s(I3
I43
tp1215
(I0
(lp1216
I43
atp1217
s(I1
I47
tp1218
(I1
(lp1219
I272
atp1220
s(I4
I44
tp1221
(I0
(lp1222
I119
atp1223
s(I3
I60
tp1224
(I0
(lp1225
I60
atp1226
s(I2
I44
tp1227
(I1
(lp1228
I254
atp1229
s(I0
I31
tp1230
(I0
(lp1231
I208
atp1232
s(I0
I68
tp1233
(I0
(lp1234
I171
atp1235
s(I4
I63
tp1236
(I0
(lp1237
I100
atp1238
s(I3
I49
tp1239
(I0
(lp1240
I49
atp1241
s(I0
I2
tp1242
(I0
(lp1243
I237
atp1244
s(I3
I19
tp1245
(I0
(lp1246
I19
atp1247
s(I5
I62
tp1248
(I0
(lp1249
I152
atp1250
s(I4
I74
tp1251
(I0
(lp1252
I89
atp1253
s(I4
I77
tp1254
(I0
(lp1255
I86
atp1256
s(I2
I70
tp1257
(I2
(lp1258
I312
atp1259
s(I0
I53
tp1260
(I0
(lp1261
I186
atp1262
s(I3
I11
tp1263
(I0
(lp1264
I11
atp1265
s(I3
I39
tp1266
(I0
(lp1267
I39
atp1268
s(I4
I69
tp1269
(I0
(lp1270
I94
atp1271
s(I1
I77
tp1272
(I2
(lp1273
I302
atp1274
s(I1
I48
tp1275
(I1
(lp1276
I273
atp1277
s(I0
I56
tp1278
(I0
(lp1279
I183
atp1280
s(I3
I21
tp1281
(I0
(lp1282
I21
atp1283
s(I2
I55
tp1284
(I1
(lp1285
I243
atp1286
s(I1
I37
tp1287
(I1
(lp1288
I262
atp1289
s(I0
I43
tp1290
(I0
(lp1291
I196
atp1292
s(I3
I38
tp1293
(I0
(lp1294
I38
atp1295
s(I5
I65
tp1296
(I0
(lp1297
I155
atp1298
s(I1
I42
tp1299
(I1
(lp1300
I267
atp1301
s(I3
I59
tp1302
(I0
(lp1303
I59
atp1304
s(I0
I28
tp1305
(I0
(lp1306
I211
atp1307
s(I0
I65
tp1308
(I0
(lp1309
I174
atp1310
s(I4
I60
tp1311
(I0
(lp1312
I103
atp1313
s(I0
I15
tp1314
(I0
(lp1315
I224
atp1316
s(I5
I49
tp1317
(I0
(lp1318
I139
atp1319
s(I3
I10
tp1320
(I0
(lp1321
I10
atp1322
s(I2
I75
tp1323
(I2
(lp1324
I307
atp1325
s(I0
I50
tp1326
(I0
(lp1327
I189
atp1328
s(I3
I72
tp1329
(I0
(lp1330
I72
atp1331
s(I3
I31
tp1332
(I0
(lp1333
I31
atp1334
s(I1
I72
tp1335
(I2
(lp1336
I297
atp1337
s(I1
I51
tp1338
(I1
(lp1339
I276
atp1340
s(I0
I37
tp1341
(I0
(lp1342
I202
atp1343
s(I3
I14
tp1344
(I0
(lp1345
I14
atp1346
s(I3
I16
tp1347
(I0
(lp1348
I16
atp1349
s(I2
I56
tp1350
(I1
(lp1351
I242
atp1352
s(I0
I40
tp1353
(I0
(lp1354
I199
atp1355
s(I5
I66
tp1356
(I0
(lp1357
I156
atp1358
s(I4
I43
tp1359
(I0
(lp1360
I120
atp1361
s(I3
I37
tp1362
(I0
(lp1363
I37
atp1364
s(I2
I39
tp1365
(I1
(lp1366
I259
atp1367
s(I0
I22
tp1368
(I0
(lp1369
I217
atp1370
s(I5
I42
tp1371
(I0
(lp1372
I132
atp1373
s(I4
I38
tp1374
(I0
(lp1375
I125
atp1376
s(I3
I54
tp1377
(I0
(lp1378
I54
atp1379
s(I0
I25
tp1380
(I0
(lp1381
I214
atp1382
s(I5
I39
tp1383
(I0
(lp1384
I129
atp1385
s(I4
I49
tp1386
(I0
(lp1387
I114
atp1388
s(I3
I5
tp1389
(I0
(lp1390
I5
atp1391
s(I0
I12
tp1392
(I0
(lp1393
I227
atp1394
s(I3
I15
tp1395
(I0
(lp1396
I15
atp1397
s(I5
I52
tp1398
(I0
(lp1399
I142
atp1400
s(I4
I76
tp1401
(I0
(lp1402
I87
atp1403
s(I1
I70
tp1404
(I2
(lp1405
I295
atp1406
s(I2
I76
tp1407
(I2
(lp1408
I306
atp1409
s(I0
I63
tp1410
(I0
(lp1411
I176
atp1412
s(I3
I71
tp1413
(I0
(lp1414
I71
atp1415
s(I3
I26
tp1416
(I0
(lp1417
I26
atp1418
s(I1
I75
tp1419
(I2
(lp1420
I300
atp1421
s(I1
I62
tp1422
(I2
(lp1423
I287
atp1424
s(I0
I34
tp1425
(I0
(lp1426
I205
atp1427
s(I5
I72
tp1428
(I0
(lp1429
I162
atp1430
s(I3
I47
tp1431
(I0
(lp1432
I47
atp1433
s(I2
I61
tp1434
(I2
(lp1435
I321
atp1436
s(I5
I69
tp1437
(I0
(lp1438
I159
atp1439
s(I4
I40
tp1440
(I0
(lp1441
I123
atp1442
s(I3
I6
tp1443
(I0
(lp1444
I6
atp1445
s(I2
I40
tp1446
(I1
(lp1447
I258
atp1448
s(I0
I19
tp1449
(I0
(lp1450
I220
atp1451
s(I5
I45
tp1452
(I0
(lp1453
I135
atp1454
s(I4
I59
tp1455
(I0
(lp1456
I104
atp1457
s(I3
I53
tp1458
(I0
(lp1459
I53
atp1460
s(I0
I6
tp1461
(I0
(lp1462
I233
atp1463
s(I5
I58
tp1464
(I0
(lp1465
I148
atp1466
s(I4
I54
tp1467
(I0
(lp1468
I109
atp1469
s(I4
I72
tp1470
(I0
(lp1471
I91
atp1472
s(I2
I66
tp1473
(I2
(lp1474
I316
atp1475
s(I0
I9
tp1476
(I0
(lp1477
I230
atp1478
s(I5
I55
tp1479
(I0
(lp1480
I145
atp1481
s(I4
I65
tp1482
(I0
(lp1483
I98
atp1484
s(I1
I65
tp1485
(I2
(lp1486
I290
atp1487
s(I1
I52
tp1488
(I1
(lp1489
I277
atp1490
s(I0
I60
tp1491
(I0
(lp1492
I179
atp1493
s(I3
I66
tp1494
(I0
(lp1495
I66
atp1496
s(I3
I25
tp1497
(I0
(lp1498
I25
atp1499
s(I2
I51
tp1500
(I1
(lp1501
I247
atp1502
s(I3
I7
tp1503
(I0
(lp1504
I7
atp1505
s(I0
I47
tp1506
(I0
(lp1507
I192
atp1508
s(I3
I42
tp1509
(I0
(lp1510
I42
atp1511
s(I2
I62
tp1512
(I2
(lp1513
I320
atp1514
s(I1
I46
tp1515
(I1
(lp1516
I271
atp1517
s(I3
I2
tp1518
(I0
(lp1519
I2
atp1520
s(I4
I45
tp1521
(I0
(lp1522
I118
atp1523
s(I3
I63
tp1524
(I0
(lp1525
I63
atp1526
s(I2
I45
tp1527
(I1
(lp1528
I253
atp1529
s(I0
I16
tp1530
(I0
(lp1531
I223
atp1532
s(I0
I69
tp1533
(I0
(lp1534
I170
atp1535
s(I4
I56
tp1536
(I0
(lp1537
I107
atp1538
s(I3
I48
tp1539
(I0
(lp1540
I48
atp1541
s(I0
I3
tp1542
(I0
(lp1543
I236
atp1544
s(I0
I72
tp1545
(I0
(lp1546
I167
atp1547
s(I5
I61
tp1548
(I0
(lp1549
I151
atp1550
s(I4
I75
tp1551
(I0
(lp1552
I88
atp1553
s(I2
I71
tp1554
(I2
(lp1555
I311
atp1556
s(I0
I54
tp1557
(I0
(lp1558
I185
atp1559
s(I3
I76
tp1560
(I0
(lp1561
I76
atp1562
s(I4
I70
tp1563
(I0
(lp1564
I93
atp1565
s(I1
I76
tp1566
(I2
(lp1567
I301
atp1568
s(I1
I55
tp1569
(I2
(lp1570
I280
atp1571
s(I0
I57
tp1572
(I0
(lp1573
I182
atp1574
s(I3
I65
tp1575
(I0
(lp1576
I65
atp1577
s(I3
I20
tp1578
(I0
(lp1579
I20
atp1580
s(I2
I52
tp1581
(I1
(lp1582
I246
atp1583
s(I3
I0
tp1584
(I0
(lp1585
I0
atp1586
s(I0
I44
tp1587
(I0
(lp1588
I195
atp1589
s(I3
I77
tp1590
(I0
(lp1591
I77
atp1592
s(I3
I41
tp1593
(I0
(lp1594
I41
atp1595
s(I1
I41
tp1596
(I1
(lp1597
I266
atp1598
s(I3
I58
tp1599
(I0
(lp1600
I58
atp1601
s(I2
I46
tp1602
(I1
(lp1603
I252
atp1604
s(I0
I29
tp1605
(I0
(lp1606
I210
atp1607
s(I0
I66
tp1608
(I0
(lp1609
I173
atp1610
s(I4
I61
tp1611
(I0
(lp1612
I102
atp1613
s(I0
I0
tp1614
(I0
(lp1615
I239
atp1616
s(I5
I48
tp1617
(I0
(lp1618
I138
atp1619
s(I3
I13
tp1620
(I0
(lp1621
I13
atp1622
s(I1
I57
tp1623
(I2
(lp1624
I282
atp1625
s(I2
I72
tp1626
(I2
(lp1627
I310
atp1628
s(I0
I51
tp1629
(I0
(lp1630
I188
atp1631
s(I3
I75
tp1632
(I0
(lp1633
I75
atp1634
s(I3
I30
tp1635
(I0
(lp1636
I30
atp1637
s(I1
I50
tp1638
(I1
(lp1639
I275
atp1640
s(I0
I38
tp1641
(I0
(lp1642
I201
atp1643
s(I2
I65
tp1644
(I2
(lp1645
I317
atp1646
s(I2
I57
tp1647
(I1
(lp1648
I241
atp1649
s(I1
I39
tp1650
(I1
(lp1651
I264
atp1652
s(I0
I41
tp1653
(I0
(lp1654
I198
atp1655
s(I3
I4
tp1656
(I0
(lp1657
I4
atp1658
s(I3
I81
tp1659
(I0
(lp1660
I81
atp1661
s(I3
I36
tp1662
(I0
(lp1663
I36
atp1664
s(I0
I23
tp1665
(I0
(lp1666
I216
atp1667
s(I3
I1
tp1668
(I0
(lp1669
I1
atp1670
s(I5
I41
tp1671
(I0
(lp1672
I131
atp1673
s(I4
I39
tp1674
(I0
(lp1675
I124
atp1676
s(I3
I57
tp1677
(I0
(lp1678
I57
atp1679
s(I0
I26
tp1680
(I0
(lp1681
I213
atp1682
s(I5
I38
tp1683
(I0
(lp1684
I128
atp1685
s(I4
I50
tp1686
(I0
(lp1687
I113
atp1688
s(I0
I13
tp1689
(I0
(lp1690
I226
atp1691
s(I5
I51
tp1692
(I0
(lp1693
I141
atp1694
s(I3
I8
tp1695
(I0
(lp1696
I8
atp1697
s(I1
I69
tp1698
(I2
(lp1699
I294
atp1700
s(I2
I77
tp1701
(I2
(lp1702
I305
atp1703
s(I3
I9
tp1704
(I0
(lp1705
I9
atp1706
s(I3
I70
tp1707
(I0
(lp1708
I70
atp1709
s(I3
I29
tp1710
(I0
(lp1711
I29
atp1712
s(I1
I74
tp1713
(I2
(lp1714
I299
atp1715
s(I1
I61
tp1716
(I2
(lp1717
I286
atp1718
s(I0
I35
tp1719
(I0
(lp1720
I204
atp1721
s(I3
I46
tp1722
(I0
(lp1723
I46
atp1724
s(I2
I58
tp1725
(I1
(lp1726
I240
atp1727
ssb(dp1728
I0
(I15
I13
tp1729
sI1
(I14
I13
tp1730
sI2
(I14
I14
tp1731
sI3
(I14
I15
tp1732
sI4
(I15
I15
tp1733
sI5
(I15
I14
tp1734
sI6
(I14
I12
tp1735
sI7
(I15
I12
tp1736
sI8
(I14
I16
tp1737
sI9
(I13
I14
tp1738
sI10
(I16
I14
tp1739
sI11
(I15
I16
tp1740
stp1741
.