(ccopy_reg
_reconstructor
p0
(corigami_utils
vhelix_vbase_to_nucleotide
p1
c__builtin__
object
p2
Ntp3
Rp4
(dp5
S'strand_count'
p6
I0
sS'nuc_count'
p7
I0
sS'_stap'
p8
(dp9
(I0
I86
tp10
(I4
(lp11
I820
atp12
s(I3
I35
tp13
(I10
(lp14
I1062
atp15
s(I4
I36
tp16
(I10
(lp17
I1064
atp18
s(I2
I84
tp19
(I9
(lp20
I1000
atp21
s(I0
I76
tp22
(I3
(lp23
I761
atp24
s(I5
I57
tp25
(I2
(lp26
I725
atp27
s(I4
I66
tp28
(I12
(lp29
I1136
atp30
s(I1
I64
tp31
(I3
(lp32
I774
atp33
s(I2
I78
tp34
(I9
(lp35
I994
atp36
s(I0
I98
tp37
(I5
(lp38
I867
atp39
s(I5
I74
tp40
(I12
(lp41
I1121
atp42
s(I3
I86
tp43
(I9
(lp44
I1011
atp45
s(I4
I104
tp46
(I5
(lp47
I845
atp48
s(I2
I104
tp49
(I6
(lp50
I901
atp51
s(I5
I84
tp52
(I4
(lp53
I831
atp54
s(I4
I118
tp55
(I11
(lp56
I1104
atp57
s(I0
I55
tp58
(I2
(lp59
I740
atp60
s(I1
I54
tp61
(I3
(lp62
I784
atp63
s(I2
I53
tp64
(I8
(lp65
I969
atp66
s(I0
I45
tp67
(I1
(lp68
I688
atp69
s(I3
I40
tp70
(I10
(lp71
I1057
atp72
s(I1
I40
tp73
(I1
(lp74
I672
atp75
s(I4
I35
tp76
(I10
(lp77
I1063
atp78
s(I2
I47
tp79
(I10
(lp80
I1047
atp81
s(I0
I67
tp82
(I3
(lp83
I752
atp84
s(I4
I73
tp85
(I12
(lp86
I1143
atp87
s(I1
I89
tp88
(I4
(lp89
I798
atp90
s(I2
I73
tp91
(I8
(lp92
I989
atp93
s(I3
I95
tp94
(I6
(lp95
I883
atp96
s(I4
I87
tp97
(I12
(lp98
I1157
atp99
s(I1
I115
tp100
(I7
(lp101
I926
atp102
s(I2
I99
tp103
(I6
(lp104
I896
atp105
s(I5
I93
tp106
(I5
(lp107
I857
atp108
s(I3
I101
tp109
(I6
(lp110
I877
atp111
s(I5
I103
tp112
(I5
(lp113
I847
atp114
s(I0
I36
tp115
(I1
(lp116
I679
atp117
s(I4
I42
tp118
(I10
(lp119
I1070
atp120
s(I2
I38
tp121
(I10
(lp122
I1038
atp123
s(I0
I90
tp124
(I4
(lp125
I824
atp126
s(I5
I43
tp127
(I1
(lp128
I697
atp129
s(I3
I55
tp130
(I8
(lp131
I958
atp132
s(I4
I48
tp133
(I10
(lp134
I1076
atp135
s(I1
I82
tp136
(I4
(lp137
I805
atp138
s(I2
I64
tp139
(I8
(lp140
I980
atp141
s(I0
I112
tp142
(I7
(lp143
I916
atp144
s(I5
I53
tp145
(I2
(lp146
I729
atp147
s(I3
I68
tp148
(I9
(lp149
I1029
atp150
s(I4
I94
tp151
(I12
(lp152
I1164
atp153
s(I1
I116
tp154
(I7
(lp155
I925
atp156
s(I5
I70
tp157
(I12
(lp158
I1125
atp159
s(I3
I106
tp160
(I11
(lp161
I1117
atp162
s(I4
I100
tp163
(I5
(lp164
I841
atp165
s(I1
I110
tp166
(I7
(lp167
I931
atp168
s(I5
I96
tp169
(I5
(lp170
I854
atp171
s(I3
I112
tp172
(I11
(lp173
I1111
atp174
s(I0
I59
tp175
(I2
(lp176
I744
atp177
s(I1
I58
tp178
(I3
(lp179
I780
atp180
s(I0
I81
tp181
(I4
(lp182
I815
atp183
s(I3
I60
tp184
(I8
(lp185
I953
atp186
s(I4
I63
tp187
(I12
(lp188
I1133
atp189
s(I2
I91
tp190
(I6
(lp191
I888
atp192
s(I5
I62
tp193
(I2
(lp194
I720
atp195
s(I3
I77
tp196
(I9
(lp197
I1020
atp198
s(I4
I69
tp199
(I12
(lp200
I1139
atp201
s(I1
I77
tp202
(I4
(lp203
I810
atp204
s(I2
I117
tp205
(I7
(lp206
I949
atp207
s(I0
I109
tp208
(I7
(lp209
I913
atp210
s(I5
I79
tp211
(I4
(lp212
I836
atp213
s(I3
I83
tp214
(I9
(lp215
I1014
atp216
s(I4
I99
tp217
(I5
(lp218
I840
atp219
s(I1
I103
tp220
(I6
(lp221
I903
atp222
s(I2
I111
tp223
(I7
(lp224
I943
atp225
s(I5
I105
tp226
(I11
(lp227
I1090
atp228
s(I0
I50
tp229
(I2
(lp230
I735
atp231
s(I5
I115
tp232
(I11
(lp233
I1080
atp234
s(I1
I51
tp235
(I3
(lp236
I787
atp237
s(I2
I56
tp238
(I8
(lp239
I972
atp240
s(I0
I40
tp241
(I1
(lp242
I683
atp243
s(I3
I37
tp244
(I10
(lp245
I1060
atp246
s(I4
I38
tp247
(I10
(lp248
I1066
atp249
s(I2
I82
tp250
(I9
(lp251
I998
atp252
s(I0
I78
tp253
(I4
(lp254
I812
atp255
s(I5
I39
tp256
(I1
(lp257
I701
atp258
s(I4
I76
tp259
(I12
(lp260
I1146
atp261
s(I1
I70
tp262
(I3
(lp263
I768
atp264
s(I2
I76
tp265
(I8
(lp266
I992
atp267
s(I0
I100
tp268
(I5
(lp269
I869
atp270
s(I5
I72
tp271
(I12
(lp272
I1123
atp273
s(I3
I88
tp274
(I9
(lp275
I1009
atp276
s(I4
I106
tp277
(I11
(lp278
I1092
atp279
s(I2
I102
tp280
(I6
(lp281
I899
atp282
s(I5
I82
tp283
(I4
(lp284
I833
atp285
s(I4
I112
tp286
(I11
(lp287
I1098
atp288
s(I1
I52
tp289
(I3
(lp290
I786
atp291
s(I2
I51
tp292
(I8
(lp293
I967
atp294
s(I0
I47
tp295
(I1
(lp296
I690
atp297
s(I3
I42
tp298
(I10
(lp299
I1055
atp300
s(I1
I46
tp301
(I1
(lp302
I666
atp303
s(I4
I45
tp304
(I10
(lp305
I1073
atp306
s(I2
I45
tp307
(I10
(lp308
I1045
atp309
s(I0
I69
tp310
(I3
(lp311
I754
atp312
s(I3
I48
tp313
(I10
(lp314
I1049
atp315
s(I4
I75
tp316
(I12
(lp317
I1145
atp318
s(I1
I95
tp319
(I4
(lp320
I792
atp321
s(I2
I71
tp322
(I8
(lp323
I987
atp324
s(I3
I65
tp325
(I9
(lp326
I1032
atp327
s(I4
I81
tp328
(I12
(lp329
I1151
atp330
s(I1
I113
tp331
(I7
(lp332
I928
atp333
s(I2
I97
tp334
(I6
(lp335
I894
atp336
s(I5
I91
tp337
(I5
(lp338
I859
atp339
s(I3
I103
tp340
(I6
(lp341
I875
atp342
s(I1
I107
tp343
(I7
(lp344
I934
atp345
s(I5
I101
tp346
(I5
(lp347
I849
atp348
s(I0
I38
tp349
(I1
(lp350
I681
atp351
s(I1
I39
tp352
(I1
(lp353
I673
atp354
s(I2
I36
tp355
(I10
(lp356
I1036
atp357
s(I0
I92
tp358
(I5
(lp359
I861
atp360
s(I5
I41
tp361
(I1
(lp362
I699
atp363
s(I3
I57
tp364
(I8
(lp365
I956
atp366
s(I4
I50
tp367
(I2
(lp368
I707
atp369
s(I1
I80
tp370
(I4
(lp371
I807
atp372
s(I2
I94
tp373
(I6
(lp374
I891
atp375
s(I0
I114
tp376
(I7
(lp377
I918
atp378
s(I5
I51
tp379
(I2
(lp380
I731
atp381
s(I3
I70
tp382
(I9
(lp383
I1027
atp384
s(I4
I88
tp385
(I12
(lp386
I1158
atp387
s(I1
I74
tp388
(I3
(lp389
I764
atp390
s(I0
I104
tp391
(I5
(lp392
I873
atp393
s(I5
I68
tp394
(I12
(lp395
I1127
atp396
s(I3
I108
tp397
(I11
(lp398
I1115
atp399
s(I4
I102
tp400
(I5
(lp401
I843
atp402
s(I1
I108
tp403
(I7
(lp404
I933
atp405
s(I5
I110
tp406
(I11
(lp407
I1085
atp408
s(I3
I114
tp409
(I11
(lp410
I1109
atp411
s(I0
I61
tp412
(I2
(lp413
I746
atp414
s(I1
I56
tp415
(I3
(lp416
I782
atp417
s(I2
I63
tp418
(I8
(lp419
I979
atp420
s(I0
I83
tp421
(I4
(lp422
I817
atp423
s(I3
I62
tp424
(I8
(lp425
I951
atp426
s(I4
I57
tp427
(I2
(lp428
I714
atp429
s(I2
I89
tp430
(I9
(lp431
I1005
atp432
s(I0
I73
tp433
(I3
(lp434
I758
atp435
s(I5
I60
tp436
(I2
(lp437
I722
atp438
s(I3
I79
tp439
(I9
(lp440
I1018
atp441
s(I4
I71
tp442
(I12
(lp443
I1141
atp444
s(I1
I67
tp445
(I3
(lp446
I771
atp447
s(I2
I115
tp448
(I7
(lp449
I947
atp450
s(I0
I111
tp451
(I7
(lp452
I915
atp453
s(I5
I77
tp454
(I4
(lp455
I838
atp456
s(I3
I85
tp457
(I9
(lp458
I1012
atp459
s(I4
I109
tp460
(I11
(lp461
I1095
atp462
s(I1
I101
tp463
(I6
(lp464
I905
atp465
s(I2
I109
tp466
(I7
(lp467
I941
atp468
s(I5
I87
tp469
(I4
(lp470
I828
atp471
s(I0
I52
tp472
(I2
(lp473
I737
atp474
s(I5
I113
tp475
(I11
(lp476
I1082
atp477
s(I1
I49
tp478
(I3
(lp479
I789
atp480
s(I2
I54
tp481
(I8
(lp482
I970
atp483
s(I0
I42
tp484
(I1
(lp485
I685
atp486
s(I3
I39
tp487
(I10
(lp488
I1058
atp489
s(I1
I43
tp490
(I1
(lp491
I669
atp492
s(I2
I80
tp493
(I9
(lp494
I996
atp495
s(I0
I64
tp496
(I3
(lp497
I749
atp498
s(I5
I37
tp499
(I1
(lp500
I703
atp501
s(I4
I78
tp502
(I12
(lp503
I1148
atp504
s(I1
I68
tp505
(I3
(lp506
I770
atp507
s(I2
I74
tp508
(I8
(lp509
I990
atp510
s(I0
I102
tp511
(I5
(lp512
I871
atp513
s(I3
I90
tp514
(I9
(lp515
I1007
atp516
s(I4
I84
tp517
(I12
(lp518
I1154
atp519
s(I2
I100
tp520
(I6
(lp521
I897
atp522
s(I5
I80
tp523
(I4
(lp524
I835
atp525
s(I3
I96
tp526
(I6
(lp527
I882
atp528
s(I4
I114
tp529
(I11
(lp530
I1100
atp531
s(I2
I49
tp532
(I8
(lp533
I965
atp534
s(I3
I44
tp535
(I10
(lp536
I1053
atp537
s(I1
I44
tp538
(I1
(lp539
I668
atp540
s(I4
I47
tp541
(I10
(lp542
I1075
atp543
s(I2
I43
tp544
(I10
(lp545
I1043
atp546
s(I0
I71
tp547
(I3
(lp548
I756
atp549
s(I5
I46
tp550
(I1
(lp551
I694
atp552
s(I3
I50
tp553
(I8
(lp554
I963
atp555
s(I4
I53
tp556
(I2
(lp557
I710
atp558
s(I1
I93
tp559
(I4
(lp560
I794
atp561
s(I2
I69
tp562
(I8
(lp563
I985
atp564
s(I3
I67
tp565
(I9
(lp566
I1030
atp567
s(I4
I83
tp568
(I12
(lp569
I1153
atp570
s(I5
I89
tp571
(I4
(lp572
I826
atp573
s(I3
I105
tp574
(I11
(lp575
I1118
atp576
s(I1
I105
tp577
(I7
(lp578
I936
atp579
s(I5
I99
tp580
(I5
(lp581
I851
atp582
s(I0
I56
tp583
(I2
(lp584
I741
atp585
s(I1
I37
tp586
(I1
(lp587
I675
atp588
s(I0
I94
tp589
(I5
(lp590
I863
atp591
s(I3
I59
tp592
(I8
(lp593
I954
atp594
s(I4
I60
tp595
(I2
(lp596
I717
atp597
s(I1
I86
tp598
(I4
(lp599
I801
atp600
s(I2
I92
tp601
(I6
(lp602
I889
atp603
s(I0
I116
tp604
(I7
(lp605
I920
atp606
s(I5
I49
tp607
(I2
(lp608
I733
atp609
s(I3
I72
tp610
(I9
(lp611
I1025
atp612
s(I4
I90
tp613
(I12
(lp614
I1160
atp615
s(I1
I72
tp616
(I3
(lp617
I766
atp618
s(I2
I118
tp619
(I7
(lp620
I950
atp621
s(I0
I106
tp622
(I7
(lp623
I910
atp624
s(I5
I66
tp625
(I12
(lp626
I1129
atp627
s(I3
I110
tp628
(I11
(lp629
I1113
atp630
s(I4
I96
tp631
(I12
(lp632
I1166
atp633
s(I1
I98
tp634
(I6
(lp635
I908
atp636
s(I5
I108
tp637
(I11
(lp638
I1087
atp639
s(I3
I116
tp640
(I11
(lp641
I1107
atp642
s(I0
I63
tp643
(I3
(lp644
I748
atp645
s(I5
I118
tp646
(I11
(lp647
I1077
atp648
s(I1
I62
tp649
(I3
(lp650
I776
atp651
s(I2
I61
tp652
(I8
(lp653
I977
atp654
s(I0
I85
tp655
(I4
(lp656
I819
atp657
s(I4
I59
tp658
(I2
(lp659
I716
atp660
s(I2
I87
tp661
(I9
(lp662
I1003
atp663
s(I0
I75
tp664
(I3
(lp665
I760
atp666
s(I5
I58
tp667
(I2
(lp668
I724
atp669
s(I4
I65
tp670
(I12
(lp671
I1135
atp672
s(I1
I65
tp673
(I3
(lp674
I773
atp675
s(I2
I113
tp676
(I7
(lp677
I945
atp678
s(I0
I97
tp679
(I5
(lp680
I866
atp681
s(I5
I75
tp682
(I12
(lp683
I1120
atp684
s(I3
I87
tp685
(I9
(lp686
I1010
atp687
s(I4
I111
tp688
(I11
(lp689
I1097
atp690
s(I2
I107
tp691
(I7
(lp692
I939
atp693
s(I5
I85
tp694
(I4
(lp695
I830
atp696
s(I4
I117
tp697
(I11
(lp698
I1103
atp699
s(I0
I54
tp700
(I2
(lp701
I739
atp702
s(I1
I55
tp703
(I3
(lp704
I783
atp705
s(I2
I52
tp706
(I8
(lp707
I968
atp708
s(I0
I44
tp709
(I1
(lp710
I687
atp711
s(I3
I41
tp712
(I10
(lp713
I1056
atp714
s(I1
I41
tp715
(I1
(lp716
I671
atp717
s(I2
I46
tp718
(I10
(lp719
I1046
atp720
s(I0
I66
tp721
(I3
(lp722
I751
atp723
s(I5
I35
tp724
(I1
(lp725
I705
atp726
s(I4
I72
tp727
(I12
(lp728
I1142
atp729
s(I1
I90
tp730
(I4
(lp731
I797
atp732
s(I2
I72
tp733
(I8
(lp734
I988
atp735
s(I3
I92
tp736
(I6
(lp737
I886
atp738
s(I4
I86
tp739
(I12
(lp740
I1156
atp741
s(I2
I98
tp742
(I6
(lp743
I895
atp744
s(I5
I94
tp745
(I5
(lp746
I856
atp747
s(I3
I98
tp748
(I6
(lp749
I880
atp750
s(I0
I35
tp751
(I1
(lp752
I678
atp753
s(I3
I46
tp754
(I10
(lp755
I1051
atp756
s(I4
I41
tp757
(I10
(lp758
I1069
atp759
s(I2
I41
tp760
(I10
(lp761
I1041
atp762
s(I0
I89
tp763
(I4
(lp764
I823
atp765
s(I5
I44
tp766
(I1
(lp767
I696
atp768
s(I3
I52
tp769
(I8
(lp770
I961
atp771
s(I4
I55
tp772
(I2
(lp773
I712
atp774
s(I1
I83
tp775
(I4
(lp776
I804
atp777
s(I2
I67
tp778
(I8
(lp779
I983
atp780
s(I5
I54
tp781
(I2
(lp782
I728
atp783
s(I3
I69
tp784
(I9
(lp785
I1028
atp786
s(I4
I93
tp787
(I12
(lp788
I1163
atp789
s(I1
I117
tp790
(I7
(lp791
I924
atp792
s(I5
I71
tp793
(I12
(lp794
I1124
atp795
s(I3
I107
tp796
(I11
(lp797
I1116
atp798
s(I1
I111
tp799
(I7
(lp800
I930
atp801
s(I5
I97
tp802
(I5
(lp803
I853
atp804
s(I3
I113
tp805
(I11
(lp806
I1110
atp807
s(I0
I58
tp808
(I2
(lp809
I743
atp810
s(I1
I59
tp811
(I3
(lp812
I779
atp813
s(I0
I80
tp814
(I4
(lp815
I814
atp816
s(I3
I61
tp817
(I8
(lp818
I952
atp819
s(I4
I62
tp820
(I2
(lp821
I719
atp822
s(I1
I84
tp823
(I4
(lp824
I803
atp825
s(I2
I90
tp826
(I9
(lp827
I1006
atp828
s(I0
I118
tp829
(I7
(lp830
I922
atp831
s(I5
I63
tp832
(I12
(lp833
I1132
atp834
s(I3
I74
tp835
(I9
(lp836
I1023
atp837
s(I4
I68
tp838
(I12
(lp839
I1138
atp840
s(I1
I78
tp841
(I4
(lp842
I809
atp843
s(I2
I116
tp844
(I7
(lp845
I948
atp846
s(I0
I108
tp847
(I7
(lp848
I912
atp849
s(I5
I64
tp850
(I12
(lp851
I1131
atp852
s(I3
I80
tp853
(I9
(lp854
I1017
atp855
s(I4
I98
tp856
(I5
(lp857
I839
atp858
s(I1
I96
tp859
(I4
(lp860
I791
atp861
s(I2
I110
tp862
(I7
(lp863
I942
atp864
s(I5
I106
tp865
(I11
(lp866
I1089
atp867
s(I3
I118
tp868
(I11
(lp869
I1105
atp870
s(I0
I49
tp871
(I2
(lp872
I734
atp873
s(I5
I116
tp874
(I11
(lp875
I1079
atp876
s(I1
I60
tp877
(I3
(lp878
I778
atp879
s(I2
I59
tp880
(I8
(lp881
I975
atp882
s(I0
I87
tp883
(I4
(lp884
I821
atp885
s(I4
I37
tp886
(I10
(lp887
I1065
atp888
s(I2
I85
tp889
(I9
(lp890
I1001
atp891
s(I0
I77
tp892
(I4
(lp893
I811
atp894
s(I5
I56
tp895
(I2
(lp896
I726
atp897
s(I4
I67
tp898
(I12
(lp899
I1137
atp900
s(I1
I71
tp901
(I3
(lp902
I767
atp903
s(I2
I79
tp904
(I9
(lp905
I995
atp906
s(I0
I99
tp907
(I5
(lp908
I868
atp909
s(I5
I73
tp910
(I12
(lp911
I1122
atp912
s(I3
I89
tp913
(I9
(lp914
I1008
atp915
s(I4
I105
tp916
(I11
(lp917
I1091
atp918
s(I2
I105
tp919
(I7
(lp920
I937
atp921
s(I5
I83
tp922
(I4
(lp923
I832
atp924
s(I1
I53
tp925
(I3
(lp926
I785
atp927
s(I2
I50
tp928
(I8
(lp929
I966
atp930
s(I0
I46
tp931
(I1
(lp932
I689
atp933
s(I3
I43
tp934
(I10
(lp935
I1054
atp936
s(I1
I47
tp937
(I1
(lp938
I665
atp939
s(I4
I44
tp940
(I10
(lp941
I1072
atp942
s(I2
I44
tp943
(I10
(lp944
I1044
atp945
s(I0
I68
tp946
(I3
(lp947
I753
atp948
s(I3
I49
tp949
(I8
(lp950
I964
atp951
s(I4
I74
tp952
(I12
(lp953
I1144
atp954
s(I1
I88
tp955
(I4
(lp956
I799
atp957
s(I2
I70
tp958
(I8
(lp959
I986
atp960
s(I3
I94
tp961
(I6
(lp962
I884
atp963
s(I4
I80
tp964
(I12
(lp965
I1150
atp966
s(I1
I114
tp967
(I7
(lp968
I927
atp969
s(I2
I96
tp970
(I6
(lp971
I893
atp972
s(I5
I92
tp973
(I5
(lp974
I858
atp975
s(I3
I100
tp976
(I6
(lp977
I878
atp978
s(I5
I102
tp979
(I5
(lp980
I848
atp981
s(I0
I37
tp982
(I1
(lp983
I680
atp984
s(I4
I43
tp985
(I10
(lp986
I1071
atp987
s(I2
I39
tp988
(I10
(lp989
I1039
atp990
s(I0
I91
tp991
(I5
(lp992
I860
atp993
s(I5
I42
tp994
(I1
(lp995
I698
atp996
s(I3
I54
tp997
(I8
(lp998
I959
atp999
s(I4
I49
tp1000
(I2
(lp1001
I706
atp1002
s(I1
I81
tp1003
(I4
(lp1004
I806
atp1005
s(I2
I65
tp1006
(I8
(lp1007
I981
atp1008
s(I0
I113
tp1009
(I7
(lp1010
I917
atp1011
s(I5
I52
tp1012
(I2
(lp1013
I730
atp1014
s(I3
I71
tp1015
(I9
(lp1016
I1026
atp1017
s(I4
I95
tp1018
(I12
(lp1019
I1165
atp1020
s(I1
I75
tp1021
(I3
(lp1022
I763
atp1023
s(I5
I69
tp1024
(I12
(lp1025
I1126
atp1026
s(I3
I109
tp1027
(I11
(lp1028
I1114
atp1029
s(I4
I101
tp1030
(I5
(lp1031
I842
atp1032
s(I1
I109
tp1033
(I7
(lp1034
I932
atp1035
s(I5
I111
tp1036
(I11
(lp1037
I1084
atp1038
s(I3
I115
tp1039
(I11
(lp1040
I1108
atp1041
s(I0
I60
tp1042
(I2
(lp1043
I745
atp1044
s(I1
I57
tp1045
(I3
(lp1046
I781
atp1047
s(I2
I62
tp1048
(I8
(lp1049
I978
atp1050
s(I0
I82
tp1051
(I4
(lp1052
I816
atp1053
s(I3
I63
tp1054
(I9
(lp1055
I1034
atp1056
s(I4
I56
tp1057
(I2
(lp1058
I713
atp1059
s(I2
I88
tp1060
(I9
(lp1061
I1004
atp1062
s(I0
I72
tp1063
(I3
(lp1064
I757
atp1065
s(I5
I61
tp1066
(I2
(lp1067
I721
atp1068
s(I3
I76
tp1069
(I9
(lp1070
I1021
atp1071
s(I4
I70
tp1072
(I12
(lp1073
I1140
atp1074
s(I1
I76
tp1075
(I3
(lp1076
I762
atp1077
s(I2
I114
tp1078
(I7
(lp1079
I946
atp1080
s(I0
I110
tp1081
(I7
(lp1082
I914
atp1083
s(I5
I78
tp1084
(I4
(lp1085
I837
atp1086
s(I3
I82
tp1087
(I9
(lp1088
I1015
atp1089
s(I4
I108
tp1090
(I11
(lp1091
I1094
atp1092
s(I1
I102
tp1093
(I6
(lp1094
I904
atp1095
s(I2
I108
tp1096
(I7
(lp1097
I940
atp1098
s(I5
I104
tp1099
(I5
(lp1100
I846
atp1101
s(I0
I51
tp1102
(I2
(lp1103
I736
atp1104
s(I5
I114
tp1105
(I11
(lp1106
I1081
atp1107
s(I1
I50
tp1108
(I3
(lp1109
I788
atp1110
s(I2
I57
tp1111
(I8
(lp1112
I973
atp1113
s(I0
I41
tp1114
(I1
(lp1115
I684
atp1116
s(I3
I36
tp1117
(I10
(lp1118
I1061
atp1119
s(I4
I39
tp1120
(I10
(lp1121
I1067
atp1122
s(I2
I83
tp1123
(I9
(lp1124
I999
atp1125
s(I0
I79
tp1126
(I4
(lp1127
I813
atp1128
s(I5
I38
tp1129
(I1
(lp1130
I702
atp1131
s(I4
I77
tp1132
(I12
(lp1133
I1147
atp1134
s(I1
I69
tp1135
(I3
(lp1136
I769
atp1137
s(I2
I77
tp1138
(I9
(lp1139
I993
atp1140
s(I0
I101
tp1141
(I5
(lp1142
I870
atp1143
s(I3
I91
tp1144
(I6
(lp1145
I887
atp1146
s(I4
I107
tp1147
(I11
(lp1148
I1093
atp1149
s(I2
I103
tp1150
(I6
(lp1151
I900
atp1152
s(I5
I81
tp1153
(I4
(lp1154
I834
atp1155
s(I3
I97
tp1156
(I6
(lp1157
I881
atp1158
s(I4
I113
tp1159
(I11
(lp1160
I1099
atp1161
s(I2
I48
tp1162
(I10
(lp1163
I1048
atp1164
s(I3
I45
tp1165
(I10
(lp1166
I1052
atp1167
s(I1
I45
tp1168
(I1
(lp1169
I667
atp1170
s(I4
I46
tp1171
(I10
(lp1172
I1074
atp1173
s(I2
I42
tp1174
(I10
(lp1175
I1042
atp1176
s(I0
I70
tp1177
(I3
(lp1178
I755
atp1179
s(I5
I47
tp1180
(I1
(lp1181
I693
atp1182
s(I3
I51
tp1183
(I8
(lp1184
I962
atp1185
s(I4
I52
tp1186
(I2
(lp1187
I709
atp1188
s(I1
I94
tp1189
(I4
(lp1190
I793
atp1191
s(I2
I68
tp1192
(I8
(lp1193
I984
atp1194
s(I3
I64
tp1195
(I9
(lp1196
I1033
atp1197
s(I4
I82
tp1198
(I12
(lp1199
I1152
atp1200
s(I1
I112
tp1201
(I7
(lp1202
I929
atp1203
s(I5
I90
tp1204
(I4
(lp1205
I825
atp1206
s(I3
I102
tp1207
(I6
(lp1208
I876
atp1209
s(I1
I106
tp1210
(I7
(lp1211
I935
atp1212
s(I5
I100
tp1213
(I5
(lp1214
I850
atp1215
s(I0
I39
tp1216
(I1
(lp1217
I682
atp1218
s(I1
I38
tp1219
(I1
(lp1220
I674
atp1221
s(I2
I37
tp1222
(I10
(lp1223
I1037
atp1224
s(I0
I93
tp1225
(I5
(lp1226
I862
atp1227
s(I5
I40
tp1228
(I1
(lp1229
I700
atp1230
s(I3
I56
tp1231
(I8
(lp1232
I957
atp1233
s(I4
I51
tp1234
(I2
(lp1235
I708
atp1236
s(I1
I87
tp1237
(I4
(lp1238
I800
atp1239
s(I2
I95
tp1240
(I6
(lp1241
I892
atp1242
s(I0
I115
tp1243
(I7
(lp1244
I919
atp1245
s(I5
I50
tp1246
(I2
(lp1247
I732
atp1248
s(I3
I73
tp1249
(I9
(lp1250
I1024
atp1251
s(I4
I89
tp1252
(I12
(lp1253
I1159
atp1254
s(I1
I73
tp1255
(I3
(lp1256
I765
atp1257
s(I0
I105
tp1258
(I7
(lp1259
I909
atp1260
s(I5
I67
tp1261
(I12
(lp1262
I1128
atp1263
s(I3
I111
tp1264
(I11
(lp1265
I1112
atp1266
s(I4
I103
tp1267
(I5
(lp1268
I844
atp1269
s(I1
I99
tp1270
(I6
(lp1271
I907
atp1272
s(I5
I109
tp1273
(I11
(lp1274
I1086
atp1275
s(I3
I117
tp1276
(I11
(lp1277
I1106
atp1278
s(I0
I62
tp1279
(I2
(lp1280
I747
atp1281
s(I1
I63
tp1282
(I3
(lp1283
I775
atp1284
s(I2
I60
tp1285
(I8
(lp1286
I976
atp1287
s(I0
I84
tp1288
(I4
(lp1289
I818
atp1290
s(I4
I58
tp1291
(I2
(lp1292
I715
atp1293
s(I2
I86
tp1294
(I9
(lp1295
I1002
atp1296
s(I0
I74
tp1297
(I3
(lp1298
I759
atp1299
s(I5
I59
tp1300
(I2
(lp1301
I723
atp1302
s(I3
I78
tp1303
(I9
(lp1304
I1019
atp1305
s(I4
I64
tp1306
(I12
(lp1307
I1134
atp1308
s(I1
I66
tp1309
(I3
(lp1310
I772
atp1311
s(I2
I112
tp1312
(I7
(lp1313
I944
atp1314
s(I0
I96
tp1315
(I5
(lp1316
I865
atp1317
s(I5
I76
tp1318
(I12
(lp1319
I1119
atp1320
s(I3
I84
tp1321
(I9
(lp1322
I1013
atp1323
s(I4
I110
tp1324
(I11
(lp1325
I1096
atp1326
s(I1
I100
tp1327
(I6
(lp1328
I906
atp1329
s(I2
I106
tp1330
(I7
(lp1331
I938
atp1332
s(I5
I86
tp1333
(I4
(lp1334
I829
atp1335
s(I4
I116
tp1336
(I11
(lp1337
I1102
atp1338
s(I0
I53
tp1339
(I2
(lp1340
I738
atp1341
s(I5
I112
tp1342
(I11
(lp1343
I1083
atp1344
s(I1
I48
tp1345
(I1
(lp1346
I664
atp1347
s(I2
I55
tp1348
(I8
(lp1349
I971
atp1350
s(I0
I43
tp1351
(I1
(lp1352
I686
atp1353
s(I3
I38
tp1354
(I10
(lp1355
I1059
atp1356
s(I1
I42
tp1357
(I1
(lp1358
I670
atp1359
s(I2
I81
tp1360
(I9
(lp1361
I997
atp1362
s(I0
I65
tp1363
(I3
(lp1364
I750
atp1365
s(I5
I36
tp1366
(I1
(lp1367
I704
atp1368
s(I4
I79
tp1369
(I12
(lp1370
I1149
atp1371
s(I1
I91
tp1372
(I4
(lp1373
I796
atp1374
s(I2
I75
tp1375
(I8
(lp1376
I991
atp1377
s(I0
I103
tp1378
(I5
(lp1379
I872
atp1380
s(I3
I93
tp1381
(I6
(lp1382
I885
atp1383
s(I4
I85
tp1384
(I12
(lp1385
I1155
atp1386
s(I2
I101
tp1387
(I6
(lp1388
I898
atp1389
s(I5
I95
tp1390
(I5
(lp1391
I855
atp1392
s(I3
I99
tp1393
(I6
(lp1394
I879
atp1395
s(I4
I115
tp1396
(I11
(lp1397
I1101
atp1398
s(I3
I47
tp1399
(I10
(lp1400
I1050
atp1401
s(I1
I35
tp1402
(I1
(lp1403
I677
atp1404
s(I4
I40
tp1405
(I10
(lp1406
I1068
atp1407
s(I2
I40
tp1408
(I10
(lp1409
I1040
atp1410
s(I0
I88
tp1411
(I4
(lp1412
I822
atp1413
s(I5
I45
tp1414
(I1
(lp1415
I695
atp1416
s(I3
I53
tp1417
(I8
(lp1418
I960
atp1419
s(I4
I54
tp1420
(I2
(lp1421
I711
atp1422
s(I1
I92
tp1423
(I4
(lp1424
I795
atp1425
s(I2
I66
tp1426
(I8
(lp1427
I982
atp1428
s(I5
I55
tp1429
(I2
(lp1430
I727
atp1431
s(I3
I66
tp1432
(I9
(lp1433
I1031
atp1434
s(I4
I92
tp1435
(I12
(lp1436
I1162
atp1437
s(I1
I118
tp1438
(I7
(lp1439
I923
atp1440
s(I5
I88
tp1441
(I4
(lp1442
I827
atp1443
s(I3
I104
tp1444
(I6
(lp1445
I874
atp1446
s(I1
I104
tp1447
(I6
(lp1448
I902
atp1449
s(I5
I98
tp1450
(I5
(lp1451
I852
atp1452
s(I0
I57
tp1453
(I2
(lp1454
I742
atp1455
s(I1
I36
tp1456
(I1
(lp1457
I676
atp1458
s(I2
I35
tp1459
(I10
(lp1460
I1035
atp1461
s(I0
I95
tp1462
(I5
(lp1463
I864
atp1464
s(I3
I58
tp1465
(I8
(lp1466
I955
atp1467
s(I4
I61
tp1468
(I2
(lp1469
I718
atp1470
s(I1
I85
tp1471
(I4
(lp1472
I802
atp1473
s(I2
I93
tp1474
(I6
(lp1475
I890
atp1476
s(I0
I117
tp1477
(I7
(lp1478
I921
atp1479
s(I5
I48
tp1480
(I1
(lp1481
I692
atp1482
s(I3
I75
tp1483
(I9
(lp1484
I1022
atp1485
s(I4
I91
tp1486
(I12
(lp1487
I1161
atp1488
s(I1
I79
tp1489
(I4
(lp1490
I808
atp1491
s(I0
I107
tp1492
(I7
(lp1493
I911
atp1494
s(I5
I65
tp1495
(I12
(lp1496
I1130
atp1497
s(I3
I81
tp1498
(I9
(lp1499
I1016
atp1500
s(I4
I97
tp1501
(I12
(lp1502
I1167
atp1503
s(I1
I97
tp1504
(I4
(lp1505
I790
atp1506
s(I5
I107
tp1507
(I11
(lp1508
I1088
atp1509
s(I0
I48
tp1510
(I1
(lp1511
I691
atp1512
s(I5
I117
tp1513
(I11
(lp1514
I1078
atp1515
s(I1
I61
tp1516
(I3
(lp1517
I777
atp1518
s(I2
I58
tp1519
(I8
(lp1520
I974
atp1521
ssS'_scaf'
p1522
(dp1523
(I7
I3
tp1524
(I0
(lp1525
I640
atp1526
s(I3
I35
tp1527
(I0
(lp1528
I535
atp1529
s(I0
I86
tp1530
(I0
(lp1531
I397
atp1532
s(I4
I36
tp1533
(I0
(lp1534
I607
atp1535
s(I2
I84
tp1536
(I0
(lp1537
I287
atp1538
s(I7
I25
tp1539
(I0
(lp1540
I662
atp1541
s(I5
I57
tp1542
(I0
(lp1543
I77
atp1544
s(I4
I66
tp1545
(I0
(lp1546
I577
atp1547
s(I1
I64
tp1548
(I0
(lp1549
I488
atp1550
s(I2
I78
tp1551
(I0
(lp1552
I293
atp1553
s(I8
I5
tp1554
(I0
(lp1555
I21
atp1556
s(I0
I98
tp1557
(I0
(lp1558
I385
atp1559
s(I9
I0
tp1560
(I0
(lp1561
I27
atp1562
s(I5
I74
tp1563
(I0
(lp1564
I94
atp1565
s(I3
I86
tp1566
(I0
(lp1567
I210
atp1568
s(I4
I104
tp1569
(I0
(lp1570
I163
atp1571
s(I1
I122
tp1572
(I0
(lp1573
I358
atp1574
s(I2
I104
tp1575
(I0
(lp1576
I267
atp1577
s(I7
I12
tp1578
(I0
(lp1579
I649
atp1580
s(I5
I84
tp1581
(I0
(lp1582
I104
atp1583
s(I4
I118
tp1584
(I0
(lp1585
I149
atp1586
s(I0
I55
tp1587
(I0
(lp1588
I428
atp1589
s(I1
I54
tp1590
(I0
(lp1591
I478
atp1592
s(I2
I53
tp1593
(I0
(lp1594
I506
atp1595
s(I0
I45
tp1596
(I0
(lp1597
I438
atp1598
s(I3
I40
tp1599
(I0
(lp1600
I540
atp1601
s(I1
I40
tp1602
(I0
(lp1603
I464
atp1604
s(I6
I23
tp1605
(I0
(lp1606
I613
atp1607
s(I4
I35
tp1608
(I0
(lp1609
I608
atp1610
s(I2
I47
tp1611
(I0
(lp1612
I512
atp1613
s(I0
I67
tp1614
(I0
(lp1615
I416
atp1616
s(I0
I76
tp1617
(I0
(lp1618
I407
atp1619
s(I4
I73
tp1620
(I0
(lp1621
I194
atp1622
s(I1
I89
tp1623
(I0
(lp1624
I325
atp1625
s(I2
I73
tp1626
(I0
(lp1627
I298
atp1628
s(I8
I12
tp1629
(I0
(lp1630
I14
atp1631
s(I0
I121
tp1632
(I0
(lp1633
I362
atp1634
s(I9
I9
tp1635
(I0
(lp1636
I36
atp1637
s(I3
I95
tp1638
(I0
(lp1639
I219
atp1640
s(I4
I87
tp1641
(I0
(lp1642
I180
atp1643
s(I1
I115
tp1644
(I0
(lp1645
I351
atp1646
s(I2
I99
tp1647
(I0
(lp1648
I272
atp1649
s(I8
I18
tp1650
(I0
(lp1651
I8
atp1652
s(I9
I19
tp1653
(I0
(lp1654
I46
atp1655
s(I5
I93
tp1656
(I0
(lp1657
I113
atp1658
s(I3
I101
tp1659
(I0
(lp1660
I225
atp1661
s(I5
I103
tp1662
(I0
(lp1663
I123
atp1664
s(I0
I36
tp1665
(I0
(lp1666
I447
atp1667
s(I1
I33
tp1668
(I0
(lp1669
I457
atp1670
s(I6
I14
tp1671
(I0
(lp1672
I622
atp1673
s(I4
I42
tp1674
(I0
(lp1675
I601
atp1676
s(I2
I38
tp1677
(I0
(lp1678
I521
atp1679
s(I7
I15
tp1680
(I0
(lp1681
I652
atp1682
s(I5
I43
tp1683
(I0
(lp1684
I63
atp1685
s(I3
I55
tp1686
(I0
(lp1687
I555
atp1688
s(I0
I84
tp1689
(I0
(lp1690
I399
atp1691
s(I4
I48
tp1692
(I0
(lp1693
I595
atp1694
s(I1
I82
tp1695
(I0
(lp1696
I318
atp1697
s(I2
I64
tp1698
(I0
(lp1699
I495
atp1700
s(I0
I112
tp1701
(I0
(lp1702
I371
atp1703
s(I5
I53
tp1704
(I0
(lp1705
I73
atp1706
s(I3
I68
tp1707
(I0
(lp1708
I568
atp1709
s(I4
I94
tp1710
(I0
(lp1711
I173
atp1712
s(I1
I116
tp1713
(I0
(lp1714
I352
atp1715
s(I2
I122
tp1716
(I0
(lp1717
I249
atp1718
s(I8
I25
tp1719
(I0
(lp1720
I1
atp1721
s(I9
I20
tp1722
(I0
(lp1723
I47
atp1724
s(I5
I70
tp1725
(I0
(lp1726
I90
atp1727
s(I3
I106
tp1728
(I0
(lp1729
I230
atp1730
s(I4
I100
tp1731
(I0
(lp1732
I167
atp1733
s(I1
I110
tp1734
(I0
(lp1735
I346
atp1736
s(I7
I18
tp1737
(I0
(lp1738
I655
atp1739
s(I5
I96
tp1740
(I0
(lp1741
I116
atp1742
s(I3
I112
tp1743
(I0
(lp1744
I236
atp1745
s(I0
I59
tp1746
(I0
(lp1747
I424
atp1748
s(I1
I58
tp1749
(I0
(lp1750
I482
atp1751
s(I6
I1
tp1752
(I0
(lp1753
I635
atp1754
s(I2
I33
tp1755
(I0
(lp1756
I526
atp1757
s(I7
I4
tp1758
(I0
(lp1759
I641
atp1760
s(I3
I60
tp1761
(I0
(lp1762
I560
atp1763
s(I6
I27
tp1764
(I0
(lp1765
I609
atp1766
s(I4
I63
tp1767
(I0
(lp1768
I580
atp1769
s(I2
I91
tp1770
(I0
(lp1771
I280
atp1772
s(I0
I119
tp1773
(I0
(lp1774
I364
atp1775
s(I5
I62
tp1776
(I0
(lp1777
I82
atp1778
s(I3
I77
tp1779
(I0
(lp1780
I201
atp1781
s(I4
I69
tp1782
(I0
(lp1783
I574
atp1784
s(I1
I77
tp1785
(I0
(lp1786
I313
atp1787
s(I2
I117
tp1788
(I0
(lp1789
I254
atp1790
s(I8
I0
tp1791
(I0
(lp1792
I26
atp1793
s(I0
I109
tp1794
(I0
(lp1795
I374
atp1796
s(I5
I79
tp1797
(I0
(lp1798
I99
atp1799
s(I3
I83
tp1800
(I0
(lp1801
I207
atp1802
s(I4
I99
tp1803
(I0
(lp1804
I168
atp1805
s(I1
I103
tp1806
(I0
(lp1807
I339
atp1808
s(I2
I111
tp1809
(I0
(lp1810
I260
atp1811
s(I5
I105
tp1812
(I0
(lp1813
I125
atp1814
s(I3
I121
tp1815
(I0
(lp1816
I245
atp1817
s(I2
I30
tp1818
(I0
(lp1819
I529
atp1820
s(I0
I50
tp1821
(I0
(lp1822
I433
atp1823
s(I5
I115
tp1824
(I0
(lp1825
I135
atp1826
s(I3
I31
tp1827
(I0
(lp1828
I531
atp1829
s(I1
I51
tp1830
(I0
(lp1831
I475
atp1832
s(I2
I56
tp1833
(I0
(lp1834
I503
atp1835
s(I0
I40
tp1836
(I0
(lp1837
I443
atp1838
s(I3
I37
tp1839
(I0
(lp1840
I537
atp1841
s(I6
I18
tp1842
(I0
(lp1843
I618
atp1844
s(I4
I38
tp1845
(I0
(lp1846
I605
atp1847
s(I2
I82
tp1848
(I0
(lp1849
I289
atp1850
s(I0
I78
tp1851
(I0
(lp1852
I405
atp1853
s(I5
I39
tp1854
(I0
(lp1855
I59
atp1856
s(I0
I82
tp1857
(I0
(lp1858
I401
atp1859
s(I4
I76
tp1860
(I0
(lp1861
I191
atp1862
s(I1
I70
tp1863
(I0
(lp1864
I306
atp1865
s(I2
I76
tp1866
(I0
(lp1867
I295
atp1868
s(I8
I7
tp1869
(I0
(lp1870
I19
atp1871
s(I0
I100
tp1872
(I0
(lp1873
I383
atp1874
s(I9
I6
tp1875
(I0
(lp1876
I33
atp1877
s(I5
I72
tp1878
(I0
(lp1879
I92
atp1880
s(I3
I88
tp1881
(I0
(lp1882
I212
atp1883
s(I4
I106
tp1884
(I0
(lp1885
I161
atp1886
s(I1
I120
tp1887
(I0
(lp1888
I356
atp1889
s(I2
I102
tp1890
(I0
(lp1891
I269
atp1892
s(I5
I82
tp1893
(I0
(lp1894
I102
atp1895
s(I4
I112
tp1896
(I0
(lp1897
I155
atp1898
s(I7
I16
tp1899
(I0
(lp1900
I653
atp1901
s(I1
I52
tp1902
(I0
(lp1903
I476
atp1904
s(I2
I51
tp1905
(I0
(lp1906
I508
atp1907
s(I0
I47
tp1908
(I0
(lp1909
I436
atp1910
s(I3
I42
tp1911
(I0
(lp1912
I542
atp1913
s(I1
I46
tp1914
(I0
(lp1915
I470
atp1916
s(I6
I21
tp1917
(I0
(lp1918
I615
atp1919
s(I4
I45
tp1920
(I0
(lp1921
I598
atp1922
s(I2
I45
tp1923
(I0
(lp1924
I514
atp1925
s(I0
I69
tp1926
(I0
(lp1927
I414
atp1928
s(I3
I48
tp1929
(I0
(lp1930
I548
atp1931
s(I4
I75
tp1932
(I0
(lp1933
I192
atp1934
s(I1
I95
tp1935
(I0
(lp1936
I331
atp1937
s(I2
I71
tp1938
(I0
(lp1939
I300
atp1940
s(I8
I14
tp1941
(I0
(lp1942
I12
atp1943
s(I0
I123
tp1944
(I0
(lp1945
I360
atp1946
s(I9
I15
tp1947
(I0
(lp1948
I42
atp1949
s(I3
I65
tp1950
(I0
(lp1951
I565
atp1952
s(I4
I81
tp1953
(I0
(lp1954
I186
atp1955
s(I1
I113
tp1956
(I0
(lp1957
I349
atp1958
s(I2
I97
tp1959
(I0
(lp1960
I274
atp1961
s(I8
I20
tp1962
(I0
(lp1963
I6
atp1964
s(I9
I17
tp1965
(I0
(lp1966
I44
atp1967
s(I5
I91
tp1968
(I0
(lp1969
I111
atp1970
s(I3
I103
tp1971
(I0
(lp1972
I227
atp1973
s(I1
I107
tp1974
(I0
(lp1975
I343
atp1976
s(I5
I101
tp1977
(I0
(lp1978
I121
atp1979
s(I0
I38
tp1980
(I0
(lp1981
I445
atp1982
s(I1
I39
tp1983
(I0
(lp1984
I463
atp1985
s(I6
I12
tp1986
(I0
(lp1987
I624
atp1988
s(I2
I36
tp1989
(I0
(lp1990
I523
atp1991
s(I7
I9
tp1992
(I0
(lp1993
I646
atp1994
s(I5
I41
tp1995
(I0
(lp1996
I61
atp1997
s(I3
I57
tp1998
(I0
(lp1999
I557
atp2000
s(I4
I50
tp2001
(I0
(lp2002
I593
atp2003
s(I1
I80
tp2004
(I0
(lp2005
I316
atp2006
s(I2
I94
tp2007
(I0
(lp2008
I277
atp2009
s(I0
I114
tp2010
(I0
(lp2011
I369
atp2012
s(I5
I51
tp2013
(I0
(lp2014
I71
atp2015
s(I7
I5
tp2016
(I0
(lp2017
I642
atp2018
s(I3
I70
tp2019
(I0
(lp2020
I570
atp2021
s(I4
I88
tp2022
(I0
(lp2023
I179
atp2024
s(I1
I74
tp2025
(I0
(lp2026
I310
atp2027
s(I2
I120
tp2028
(I0
(lp2029
I251
atp2030
s(I0
I104
tp2031
(I0
(lp2032
I379
atp2033
s(I9
I26
tp2034
(I0
(lp2035
I53
atp2036
s(I5
I68
tp2037
(I0
(lp2038
I88
atp2039
s(I3
I108
tp2040
(I0
(lp2041
I232
atp2042
s(I4
I102
tp2043
(I0
(lp2044
I165
atp2045
s(I1
I108
tp2046
(I0
(lp2047
I344
atp2048
s(I5
I110
tp2049
(I0
(lp2050
I130
atp2051
s(I3
I114
tp2052
(I0
(lp2053
I238
atp2054
s(I0
I61
tp2055
(I0
(lp2056
I422
atp2057
s(I7
I22
tp2058
(I0
(lp2059
I659
atp2060
s(I1
I56
tp2061
(I0
(lp2062
I480
atp2063
s(I6
I7
tp2064
(I0
(lp2065
I629
atp2066
s(I2
I63
tp2067
(I0
(lp2068
I496
atp2069
s(I7
I6
tp2070
(I0
(lp2071
I643
atp2072
s(I3
I62
tp2073
(I0
(lp2074
I562
atp2075
s(I6
I25
tp2076
(I0
(lp2077
I611
atp2078
s(I4
I57
tp2079
(I0
(lp2080
I586
atp2081
s(I2
I89
tp2082
(I0
(lp2083
I282
atp2084
s(I0
I73
tp2085
(I0
(lp2086
I410
atp2087
s(I5
I60
tp2088
(I0
(lp2089
I80
atp2090
s(I3
I79
tp2091
(I0
(lp2092
I203
atp2093
s(I4
I71
tp2094
(I0
(lp2095
I572
atp2096
s(I1
I67
tp2097
(I0
(lp2098
I491
atp2099
s(I2
I115
tp2100
(I0
(lp2101
I256
atp2102
s(I8
I2
tp2103
(I0
(lp2104
I24
atp2105
s(I0
I111
tp2106
(I0
(lp2107
I372
atp2108
s(I9
I3
tp2109
(I0
(lp2110
I30
atp2111
s(I5
I77
tp2112
(I0
(lp2113
I97
atp2114
s(I3
I85
tp2115
(I0
(lp2116
I209
atp2117
s(I4
I109
tp2118
(I0
(lp2119
I158
atp2120
s(I1
I101
tp2121
(I0
(lp2122
I337
atp2123
s(I2
I109
tp2124
(I0
(lp2125
I262
atp2126
s(I0
I30
tp2127
(I0
(lp2128
I453
atp2129
s(I5
I87
tp2130
(I0
(lp2131
I107
atp2132
s(I3
I123
tp2133
(I0
(lp2134
I247
atp2135
s(I1
I31
tp2136
(I0
(lp2137
I455
atp2138
s(I0
I52
tp2139
(I0
(lp2140
I431
atp2141
s(I5
I113
tp2142
(I0
(lp2143
I133
atp2144
s(I1
I49
tp2145
(I0
(lp2146
I473
atp2147
s(I2
I54
tp2148
(I0
(lp2149
I505
atp2150
s(I0
I42
tp2151
(I0
(lp2152
I441
atp2153
s(I3
I39
tp2154
(I0
(lp2155
I539
atp2156
s(I1
I43
tp2157
(I0
(lp2158
I467
atp2159
s(I6
I16
tp2160
(I0
(lp2161
I620
atp2162
s(I2
I80
tp2163
(I0
(lp2164
I291
atp2165
s(I7
I21
tp2166
(I0
(lp2167
I658
atp2168
s(I5
I37
tp2169
(I0
(lp2170
I57
atp2171
s(I4
I78
tp2172
(I0
(lp2173
I189
atp2174
s(I1
I68
tp2175
(I0
(lp2176
I304
atp2177
s(I2
I74
tp2178
(I0
(lp2179
I297
atp2180
s(I8
I9
tp2181
(I0
(lp2182
I17
atp2183
s(I0
I102
tp2184
(I0
(lp2185
I381
atp2186
s(I9
I4
tp2187
(I0
(lp2188
I31
atp2189
s(I7
I11
tp2190
(I0
(lp2191
I648
atp2192
s(I3
I90
tp2193
(I0
(lp2194
I214
atp2195
s(I4
I84
tp2196
(I0
(lp2197
I183
atp2198
s(I2
I100
tp2199
(I0
(lp2200
I271
atp2201
s(I5
I80
tp2202
(I0
(lp2203
I100
atp2204
s(I3
I96
tp2205
(I0
(lp2206
I220
atp2207
s(I4
I114
tp2208
(I0
(lp2209
I153
atp2210
s(I5
I122
tp2211
(I0
(lp2212
I142
atp2213
s(I2
I49
tp2214
(I0
(lp2215
I510
atp2216
s(I0
I33
tp2217
(I0
(lp2218
I450
atp2219
s(I0
I65
tp2220
(I0
(lp2221
I418
atp2222
s(I3
I44
tp2223
(I0
(lp2224
I544
atp2225
s(I1
I44
tp2226
(I0
(lp2227
I468
atp2228
s(I6
I11
tp2229
(I0
(lp2230
I625
atp2231
s(I4
I47
tp2232
(I0
(lp2233
I596
atp2234
s(I2
I43
tp2235
(I0
(lp2236
I516
atp2237
s(I0
I71
tp2238
(I0
(lp2239
I412
atp2240
s(I5
I46
tp2241
(I0
(lp2242
I66
atp2243
s(I3
I50
tp2244
(I0
(lp2245
I550
atp2246
s(I4
I53
tp2247
(I0
(lp2248
I590
atp2249
s(I1
I93
tp2250
(I0
(lp2251
I329
atp2252
s(I2
I69
tp2253
(I0
(lp2254
I302
atp2255
s(I9
I13
tp2256
(I0
(lp2257
I40
atp2258
s(I3
I67
tp2259
(I0
(lp2260
I567
atp2261
s(I4
I83
tp2262
(I0
(lp2263
I184
atp2264
s(I1
I119
tp2265
(I0
(lp2266
I355
atp2267
s(I8
I22
tp2268
(I0
(lp2269
I4
atp2270
s(I9
I23
tp2271
(I0
(lp2272
I50
atp2273
s(I5
I89
tp2274
(I0
(lp2275
I109
atp2276
s(I3
I105
tp2277
(I0
(lp2278
I229
atp2279
s(I4
I121
tp2280
(I0
(lp2281
I146
atp2282
s(I1
I105
tp2283
(I0
(lp2284
I341
atp2285
s(I5
I99
tp2286
(I0
(lp2287
I119
atp2288
s(I0
I56
tp2289
(I0
(lp2290
I427
atp2291
s(I1
I37
tp2292
(I0
(lp2293
I461
atp2294
s(I6
I2
tp2295
(I0
(lp2296
I634
atp2297
s(I2
I34
tp2298
(I0
(lp2299
I525
atp2300
s(I0
I94
tp2301
(I0
(lp2302
I389
atp2303
s(I3
I59
tp2304
(I0
(lp2305
I559
atp2306
s(I4
I60
tp2307
(I0
(lp2308
I583
atp2309
s(I1
I86
tp2310
(I0
(lp2311
I322
atp2312
s(I2
I92
tp2313
(I0
(lp2314
I279
atp2315
s(I0
I116
tp2316
(I0
(lp2317
I367
atp2318
s(I5
I49
tp2319
(I0
(lp2320
I69
atp2321
s(I3
I72
tp2322
(I0
(lp2323
I196
atp2324
s(I4
I90
tp2325
(I0
(lp2326
I177
atp2327
s(I1
I72
tp2328
(I0
(lp2329
I308
atp2330
s(I2
I118
tp2331
(I0
(lp2332
I253
atp2333
s(I0
I106
tp2334
(I0
(lp2335
I377
atp2336
s(I9
I24
tp2337
(I0
(lp2338
I51
atp2339
s(I0
I92
tp2340
(I0
(lp2341
I391
atp2342
s(I5
I66
tp2343
(I0
(lp2344
I86
atp2345
s(I3
I110
tp2346
(I0
(lp2347
I234
atp2348
s(I4
I96
tp2349
(I0
(lp2350
I171
atp2351
s(I1
I98
tp2352
(I0
(lp2353
I334
atp2354
s(I5
I108
tp2355
(I0
(lp2356
I128
atp2357
s(I3
I116
tp2358
(I0
(lp2359
I240
atp2360
s(I0
I63
tp2361
(I0
(lp2362
I420
atp2363
s(I5
I118
tp2364
(I0
(lp2365
I138
atp2366
s(I1
I62
tp2367
(I0
(lp2368
I486
atp2369
s(I6
I5
tp2370
(I0
(lp2371
I631
atp2372
s(I2
I61
tp2373
(I0
(lp2374
I498
atp2375
s(I0
I85
tp2376
(I0
(lp2377
I398
atp2378
s(I0
I79
tp2379
(I0
(lp2380
I404
atp2381
s(I3
I32
tp2382
(I0
(lp2383
I532
atp2384
s(I4
I59
tp2385
(I0
(lp2386
I584
atp2387
s(I2
I87
tp2388
(I0
(lp2389
I284
atp2390
s(I0
I75
tp2391
(I0
(lp2392
I408
atp2393
s(I5
I58
tp2394
(I0
(lp2395
I78
atp2396
s(I4
I65
tp2397
(I0
(lp2398
I578
atp2399
s(I1
I65
tp2400
(I0
(lp2401
I489
atp2402
s(I2
I113
tp2403
(I0
(lp2404
I258
atp2405
s(I8
I4
tp2406
(I0
(lp2407
I22
atp2408
s(I0
I97
tp2409
(I0
(lp2410
I386
atp2411
s(I9
I1
tp2412
(I0
(lp2413
I28
atp2414
s(I5
I75
tp2415
(I0
(lp2416
I95
atp2417
s(I3
I87
tp2418
(I0
(lp2419
I211
atp2420
s(I4
I111
tp2421
(I0
(lp2422
I156
atp2423
s(I1
I123
tp2424
(I0
(lp2425
I359
atp2426
s(I2
I107
tp2427
(I0
(lp2428
I264
atp2429
s(I5
I85
tp2430
(I0
(lp2431
I105
atp2432
s(I4
I117
tp2433
(I0
(lp2434
I150
atp2435
s(I0
I54
tp2436
(I0
(lp2437
I429
atp2438
s(I1
I55
tp2439
(I0
(lp2440
I479
atp2441
s(I2
I52
tp2442
(I0
(lp2443
I507
atp2444
s(I0
I44
tp2445
(I0
(lp2446
I439
atp2447
s(I3
I41
tp2448
(I0
(lp2449
I541
atp2450
s(I7
I2
tp2451
(I0
(lp2452
I639
atp2453
s(I6
I22
tp2454
(I0
(lp2455
I614
atp2456
s(I2
I46
tp2457
(I0
(lp2458
I513
atp2459
s(I0
I66
tp2460
(I0
(lp2461
I417
atp2462
s(I5
I35
tp2463
(I0
(lp2464
I55
atp2465
s(I4
I72
tp2466
(I0
(lp2467
I195
atp2468
s(I1
I90
tp2469
(I0
(lp2470
I326
atp2471
s(I2
I72
tp2472
(I0
(lp2473
I299
atp2474
s(I8
I11
tp2475
(I0
(lp2476
I15
atp2477
s(I0
I120
tp2478
(I0
(lp2479
I363
atp2480
s(I9
I10
tp2481
(I0
(lp2482
I37
atp2483
s(I3
I92
tp2484
(I0
(lp2485
I216
atp2486
s(I4
I86
tp2487
(I0
(lp2488
I181
atp2489
s(I2
I98
tp2490
(I0
(lp2491
I273
atp2492
s(I8
I17
tp2493
(I0
(lp2494
I9
atp2495
s(I0
I90
tp2496
(I0
(lp2497
I393
atp2498
s(I5
I94
tp2499
(I0
(lp2500
I114
atp2501
s(I3
I98
tp2502
(I0
(lp2503
I222
atp2504
s(I5
I120
tp2505
(I0
(lp2506
I140
atp2507
s(I0
I35
tp2508
(I0
(lp2509
I448
atp2510
s(I3
I46
tp2511
(I0
(lp2512
I546
atp2513
s(I1
I34
tp2514
(I0
(lp2515
I458
atp2516
s(I6
I9
tp2517
(I0
(lp2518
I627
atp2519
s(I4
I41
tp2520
(I0
(lp2521
I602
atp2522
s(I2
I41
tp2523
(I0
(lp2524
I518
atp2525
s(I0
I89
tp2526
(I0
(lp2527
I394
atp2528
s(I0
I77
tp2529
(I0
(lp2530
I406
atp2531
s(I5
I44
tp2532
(I0
(lp2533
I64
atp2534
s(I3
I52
tp2535
(I0
(lp2536
I552
atp2537
s(I4
I55
tp2538
(I0
(lp2539
I588
atp2540
s(I1
I83
tp2541
(I0
(lp2542
I319
atp2543
s(I2
I67
tp2544
(I0
(lp2545
I492
atp2546
s(I5
I54
tp2547
(I0
(lp2548
I74
atp2549
s(I3
I69
tp2550
(I0
(lp2551
I569
atp2552
s(I4
I93
tp2553
(I0
(lp2554
I174
atp2555
s(I1
I117
tp2556
(I0
(lp2557
I353
atp2558
s(I8
I24
tp2559
(I0
(lp2560
I2
atp2561
s(I9
I21
tp2562
(I0
(lp2563
I48
atp2564
s(I5
I71
tp2565
(I0
(lp2566
I91
atp2567
s(I3
I107
tp2568
(I0
(lp2569
I231
atp2570
s(I4
I123
tp2571
(I0
(lp2572
I144
atp2573
s(I1
I111
tp2574
(I0
(lp2575
I347
atp2576
s(I5
I97
tp2577
(I0
(lp2578
I117
atp2579
s(I3
I113
tp2580
(I0
(lp2581
I237
atp2582
s(I0
I58
tp2583
(I0
(lp2584
I425
atp2585
s(I1
I59
tp2586
(I0
(lp2587
I483
atp2588
s(I6
I0
tp2589
(I0
(lp2590
I636
atp2591
s(I2
I32
tp2592
(I0
(lp2593
I527
atp2594
s(I0
I80
tp2595
(I0
(lp2596
I403
atp2597
s(I3
I61
tp2598
(I0
(lp2599
I561
atp2600
s(I7
I0
tp2601
(I0
(lp2602
I637
atp2603
s(I6
I26
tp2604
(I0
(lp2605
I610
atp2606
s(I4
I62
tp2607
(I0
(lp2608
I581
atp2609
s(I1
I84
tp2610
(I0
(lp2611
I320
atp2612
s(I2
I90
tp2613
(I0
(lp2614
I281
atp2615
s(I0
I118
tp2616
(I0
(lp2617
I365
atp2618
s(I5
I63
tp2619
(I0
(lp2620
I83
atp2621
s(I3
I74
tp2622
(I0
(lp2623
I198
atp2624
s(I4
I68
tp2625
(I0
(lp2626
I575
atp2627
s(I1
I78
tp2628
(I0
(lp2629
I314
atp2630
s(I2
I116
tp2631
(I0
(lp2632
I255
atp2633
s(I0
I108
tp2634
(I0
(lp2635
I375
atp2636
s(I5
I64
tp2637
(I0
(lp2638
I84
atp2639
s(I3
I80
tp2640
(I0
(lp2641
I204
atp2642
s(I4
I98
tp2643
(I0
(lp2644
I169
atp2645
s(I1
I96
tp2646
(I0
(lp2647
I332
atp2648
s(I2
I110
tp2649
(I0
(lp2650
I261
atp2651
s(I0
I88
tp2652
(I0
(lp2653
I395
atp2654
s(I5
I106
tp2655
(I0
(lp2656
I126
atp2657
s(I3
I118
tp2658
(I0
(lp2659
I242
atp2660
s(I0
I49
tp2661
(I0
(lp2662
I434
atp2663
s(I5
I116
tp2664
(I0
(lp2665
I136
atp2666
s(I1
I60
tp2667
(I0
(lp2668
I484
atp2669
s(I2
I59
tp2670
(I0
(lp2671
I500
atp2672
s(I0
I87
tp2673
(I0
(lp2674
I396
atp2675
s(I3
I34
tp2676
(I0
(lp2677
I534
atp2678
s(I4
I37
tp2679
(I0
(lp2680
I606
atp2681
s(I2
I85
tp2682
(I0
(lp2683
I286
atp2684
s(I7
I24
tp2685
(I0
(lp2686
I661
atp2687
s(I5
I56
tp2688
(I0
(lp2689
I76
atp2690
s(I4
I67
tp2691
(I0
(lp2692
I576
atp2693
s(I1
I71
tp2694
(I0
(lp2695
I307
atp2696
s(I2
I79
tp2697
(I0
(lp2698
I292
atp2699
s(I8
I6
tp2700
(I0
(lp2701
I20
atp2702
s(I0
I99
tp2703
(I0
(lp2704
I384
atp2705
s(I9
I7
tp2706
(I0
(lp2707
I34
atp2708
s(I5
I73
tp2709
(I0
(lp2710
I93
atp2711
s(I3
I89
tp2712
(I0
(lp2713
I213
atp2714
s(I4
I105
tp2715
(I0
(lp2716
I162
atp2717
s(I1
I121
tp2718
(I0
(lp2719
I357
atp2720
s(I2
I105
tp2721
(I0
(lp2722
I266
atp2723
s(I5
I83
tp2724
(I0
(lp2725
I103
atp2726
s(I4
I119
tp2727
(I0
(lp2728
I148
atp2729
s(I1
I53
tp2730
(I0
(lp2731
I477
atp2732
s(I2
I50
tp2733
(I0
(lp2734
I509
atp2735
s(I0
I46
tp2736
(I0
(lp2737
I437
atp2738
s(I3
I43
tp2739
(I0
(lp2740
I543
atp2741
s(I1
I47
tp2742
(I0
(lp2743
I471
atp2744
s(I6
I20
tp2745
(I0
(lp2746
I616
atp2747
s(I4
I44
tp2748
(I0
(lp2749
I599
atp2750
s(I2
I44
tp2751
(I0
(lp2752
I515
atp2753
s(I7
I17
tp2754
(I0
(lp2755
I654
atp2756
s(I3
I49
tp2757
(I0
(lp2758
I549
atp2759
s(I0
I83
tp2760
(I0
(lp2761
I400
atp2762
s(I4
I74
tp2763
(I0
(lp2764
I193
atp2765
s(I1
I88
tp2766
(I0
(lp2767
I324
atp2768
s(I2
I70
tp2769
(I0
(lp2770
I301
atp2771
s(I8
I13
tp2772
(I0
(lp2773
I13
atp2774
s(I0
I122
tp2775
(I0
(lp2776
I361
atp2777
s(I9
I8
tp2778
(I0
(lp2779
I35
atp2780
s(I3
I94
tp2781
(I0
(lp2782
I218
atp2783
s(I4
I80
tp2784
(I0
(lp2785
I187
atp2786
s(I1
I114
tp2787
(I0
(lp2788
I350
atp2789
s(I2
I96
tp2790
(I0
(lp2791
I275
atp2792
s(I8
I19
tp2793
(I0
(lp2794
I7
atp2795
s(I9
I18
tp2796
(I0
(lp2797
I45
atp2798
s(I5
I92
tp2799
(I0
(lp2800
I112
atp2801
s(I3
I100
tp2802
(I0
(lp2803
I224
atp2804
s(I7
I19
tp2805
(I0
(lp2806
I656
atp2807
s(I5
I102
tp2808
(I0
(lp2809
I122
atp2810
s(I0
I37
tp2811
(I0
(lp2812
I446
atp2813
s(I1
I32
tp2814
(I0
(lp2815
I456
atp2816
s(I6
I15
tp2817
(I0
(lp2818
I621
atp2819
s(I4
I43
tp2820
(I0
(lp2821
I600
atp2822
s(I2
I39
tp2823
(I0
(lp2824
I520
atp2825
s(I0
I91
tp2826
(I0
(lp2827
I392
atp2828
s(I5
I42
tp2829
(I0
(lp2830
I62
atp2831
s(I3
I54
tp2832
(I0
(lp2833
I554
atp2834
s(I4
I49
tp2835
(I0
(lp2836
I594
atp2837
s(I1
I81
tp2838
(I0
(lp2839
I317
atp2840
s(I2
I65
tp2841
(I0
(lp2842
I494
atp2843
s(I0
I113
tp2844
(I0
(lp2845
I370
atp2846
s(I5
I52
tp2847
(I0
(lp2848
I72
atp2849
s(I3
I71
tp2850
(I0
(lp2851
I571
atp2852
s(I4
I95
tp2853
(I0
(lp2854
I172
atp2855
s(I1
I75
tp2856
(I0
(lp2857
I311
atp2858
s(I2
I123
tp2859
(I0
(lp2860
I248
atp2861
s(I8
I26
tp2862
(I0
(lp2863
I0
atp2864
s(I9
I27
tp2865
(I0
(lp2866
I54
atp2867
s(I5
I69
tp2868
(I0
(lp2869
I89
atp2870
s(I3
I109
tp2871
(I0
(lp2872
I233
atp2873
s(I4
I101
tp2874
(I0
(lp2875
I166
atp2876
s(I1
I109
tp2877
(I0
(lp2878
I345
atp2879
s(I5
I111
tp2880
(I0
(lp2881
I131
atp2882
s(I3
I115
tp2883
(I0
(lp2884
I239
atp2885
s(I0
I60
tp2886
(I0
(lp2887
I423
atp2888
s(I1
I57
tp2889
(I0
(lp2890
I481
atp2891
s(I6
I6
tp2892
(I0
(lp2893
I630
atp2894
s(I2
I62
tp2895
(I0
(lp2896
I497
atp2897
s(I7
I7
tp2898
(I0
(lp2899
I644
atp2900
s(I3
I63
tp2901
(I0
(lp2902
I563
atp2903
s(I6
I24
tp2904
(I0
(lp2905
I612
atp2906
s(I4
I56
tp2907
(I0
(lp2908
I587
atp2909
s(I2
I88
tp2910
(I0
(lp2911
I283
atp2912
s(I0
I72
tp2913
(I0
(lp2914
I411
atp2915
s(I5
I61
tp2916
(I0
(lp2917
I81
atp2918
s(I0
I81
tp2919
(I0
(lp2920
I402
atp2921
s(I3
I76
tp2922
(I0
(lp2923
I200
atp2924
s(I4
I70
tp2925
(I0
(lp2926
I573
atp2927
s(I1
I76
tp2928
(I0
(lp2929
I312
atp2930
s(I2
I114
tp2931
(I0
(lp2932
I257
atp2933
s(I8
I1
tp2934
(I0
(lp2935
I25
atp2936
s(I0
I110
tp2937
(I0
(lp2938
I373
atp2939
s(I5
I78
tp2940
(I0
(lp2941
I98
atp2942
s(I3
I82
tp2943
(I0
(lp2944
I206
atp2945
s(I4
I108
tp2946
(I0
(lp2947
I159
atp2948
s(I1
I102
tp2949
(I0
(lp2950
I338
atp2951
s(I2
I108
tp2952
(I0
(lp2953
I263
atp2954
s(I5
I104
tp2955
(I0
(lp2956
I124
atp2957
s(I3
I120
tp2958
(I0
(lp2959
I244
atp2960
s(I2
I31
tp2961
(I0
(lp2962
I528
atp2963
s(I0
I51
tp2964
(I0
(lp2965
I432
atp2966
s(I0
I68
tp2967
(I0
(lp2968
I415
atp2969
s(I5
I114
tp2970
(I0
(lp2971
I134
atp2972
s(I3
I30
tp2973
(I0
(lp2974
I530
atp2975
s(I1
I50
tp2976
(I0
(lp2977
I474
atp2978
s(I2
I57
tp2979
(I0
(lp2980
I502
atp2981
s(I0
I41
tp2982
(I0
(lp2983
I442
atp2984
s(I3
I36
tp2985
(I0
(lp2986
I536
atp2987
s(I6
I19
tp2988
(I0
(lp2989
I617
atp2990
s(I4
I39
tp2991
(I0
(lp2992
I604
atp2993
s(I2
I83
tp2994
(I0
(lp2995
I288
atp2996
s(I7
I26
tp2997
(I0
(lp2998
I663
atp2999
s(I5
I38
tp3000
(I0
(lp3001
I58
atp3002
s(I4
I77
tp3003
(I0
(lp3004
I190
atp3005
s(I1
I69
tp3006
(I0
(lp3007
I305
atp3008
s(I2
I77
tp3009
(I0
(lp3010
I294
atp3011
s(I8
I8
tp3012
(I0
(lp3013
I18
atp3014
s(I0
I101
tp3015
(I0
(lp3016
I382
atp3017
s(I9
I5
tp3018
(I0
(lp3019
I32
atp3020
s(I3
I91
tp3021
(I0
(lp3022
I215
atp3023
s(I4
I107
tp3024
(I0
(lp3025
I160
atp3026
s(I2
I103
tp3027
(I0
(lp3028
I268
atp3029
s(I5
I81
tp3030
(I0
(lp3031
I101
atp3032
s(I3
I97
tp3033
(I0
(lp3034
I221
atp3035
s(I4
I113
tp3036
(I0
(lp3037
I154
atp3038
s(I5
I123
tp3039
(I0
(lp3040
I143
atp3041
s(I2
I48
tp3042
(I0
(lp3043
I511
atp3044
s(I0
I32
tp3045
(I0
(lp3046
I451
atp3047
s(I3
I45
tp3048
(I0
(lp3049
I545
atp3050
s(I1
I45
tp3051
(I0
(lp3052
I469
atp3053
s(I6
I10
tp3054
(I0
(lp3055
I626
atp3056
s(I4
I46
tp3057
(I0
(lp3058
I597
atp3059
s(I2
I42
tp3060
(I0
(lp3061
I517
atp3062
s(I0
I70
tp3063
(I0
(lp3064
I413
atp3065
s(I5
I47
tp3066
(I0
(lp3067
I67
atp3068
s(I3
I51
tp3069
(I0
(lp3070
I551
atp3071
s(I4
I52
tp3072
(I0
(lp3073
I591
atp3074
s(I1
I94
tp3075
(I0
(lp3076
I330
atp3077
s(I2
I68
tp3078
(I0
(lp3079
I303
atp3080
s(I8
I15
tp3081
(I0
(lp3082
I11
atp3083
s(I1
I41
tp3084
(I0
(lp3085
I465
atp3086
s(I9
I14
tp3087
(I0
(lp3088
I41
atp3089
s(I0
I95
tp3090
(I0
(lp3091
I388
atp3092
s(I3
I64
tp3093
(I0
(lp3094
I564
atp3095
s(I4
I82
tp3096
(I0
(lp3097
I185
atp3098
s(I1
I112
tp3099
(I0
(lp3100
I348
atp3101
s(I8
I21
tp3102
(I0
(lp3103
I5
atp3104
s(I9
I16
tp3105
(I0
(lp3106
I43
atp3107
s(I5
I90
tp3108
(I0
(lp3109
I110
atp3110
s(I3
I102
tp3111
(I0
(lp3112
I226
atp3113
s(I4
I120
tp3114
(I0
(lp3115
I147
atp3116
s(I1
I106
tp3117
(I0
(lp3118
I342
atp3119
s(I5
I100
tp3120
(I0
(lp3121
I120
atp3122
s(I0
I39
tp3123
(I0
(lp3124
I444
atp3125
s(I7
I23
tp3126
(I0
(lp3127
I660
atp3128
s(I1
I38
tp3129
(I0
(lp3130
I462
atp3131
s(I6
I13
tp3132
(I0
(lp3133
I623
atp3134
s(I2
I37
tp3135
(I0
(lp3136
I522
atp3137
s(I7
I8
tp3138
(I0
(lp3139
I645
atp3140
s(I5
I40
tp3141
(I0
(lp3142
I60
atp3143
s(I3
I56
tp3144
(I0
(lp3145
I556
atp3146
s(I4
I51
tp3147
(I0
(lp3148
I592
atp3149
s(I1
I87
tp3150
(I0
(lp3151
I323
atp3152
s(I2
I95
tp3153
(I0
(lp3154
I276
atp3155
s(I0
I115
tp3156
(I0
(lp3157
I368
atp3158
s(I5
I50
tp3159
(I0
(lp3160
I70
atp3161
s(I3
I73
tp3162
(I0
(lp3163
I197
atp3164
s(I4
I89
tp3165
(I0
(lp3166
I178
atp3167
s(I1
I73
tp3168
(I0
(lp3169
I309
atp3170
s(I2
I121
tp3171
(I0
(lp3172
I250
atp3173
s(I0
I105
tp3174
(I0
(lp3175
I378
atp3176
s(I9
I25
tp3177
(I0
(lp3178
I52
atp3179
s(I5
I67
tp3180
(I0
(lp3181
I87
atp3182
s(I3
I111
tp3183
(I0
(lp3184
I235
atp3185
s(I4
I103
tp3186
(I0
(lp3187
I164
atp3188
s(I1
I99
tp3189
(I0
(lp3190
I335
atp3191
s(I5
I109
tp3192
(I0
(lp3193
I129
atp3194
s(I3
I117
tp3195
(I0
(lp3196
I241
atp3197
s(I0
I62
tp3198
(I0
(lp3199
I421
atp3200
s(I5
I119
tp3201
(I0
(lp3202
I139
atp3203
s(I1
I63
tp3204
(I0
(lp3205
I487
atp3206
s(I6
I4
tp3207
(I0
(lp3208
I632
atp3209
s(I2
I60
tp3210
(I0
(lp3211
I499
atp3212
s(I7
I1
tp3213
(I0
(lp3214
I638
atp3215
s(I3
I33
tp3216
(I0
(lp3217
I533
atp3218
s(I4
I58
tp3219
(I0
(lp3220
I585
atp3221
s(I2
I86
tp3222
(I0
(lp3223
I285
atp3224
s(I0
I74
tp3225
(I0
(lp3226
I409
atp3227
s(I5
I59
tp3228
(I0
(lp3229
I79
atp3230
s(I3
I78
tp3231
(I0
(lp3232
I202
atp3233
s(I4
I64
tp3234
(I0
(lp3235
I579
atp3236
s(I1
I66
tp3237
(I0
(lp3238
I490
atp3239
s(I2
I112
tp3240
(I0
(lp3241
I259
atp3242
s(I8
I3
tp3243
(I0
(lp3244
I23
atp3245
s(I0
I96
tp3246
(I0
(lp3247
I387
atp3248
s(I9
I2
tp3249
(I0
(lp3250
I29
atp3251
s(I0
I93
tp3252
(I0
(lp3253
I390
atp3254
s(I5
I76
tp3255
(I0
(lp3256
I96
atp3257
s(I3
I84
tp3258
(I0
(lp3259
I208
atp3260
s(I4
I110
tp3261
(I0
(lp3262
I157
atp3263
s(I1
I100
tp3264
(I0
(lp3265
I336
atp3266
s(I2
I106
tp3267
(I0
(lp3268
I265
atp3269
s(I0
I31
tp3270
(I0
(lp3271
I452
atp3272
s(I5
I86
tp3273
(I0
(lp3274
I106
atp3275
s(I3
I122
tp3276
(I0
(lp3277
I246
atp3278
s(I4
I116
tp3279
(I0
(lp3280
I151
atp3281
s(I1
I30
tp3282
(I0
(lp3283
I454
atp3284
s(I0
I53
tp3285
(I0
(lp3286
I430
atp3287
s(I5
I112
tp3288
(I0
(lp3289
I132
atp3290
s(I1
I48
tp3291
(I0
(lp3292
I472
atp3293
s(I2
I55
tp3294
(I0
(lp3295
I504
atp3296
s(I0
I43
tp3297
(I0
(lp3298
I440
atp3299
s(I0
I64
tp3300
(I0
(lp3301
I419
atp3302
s(I3
I38
tp3303
(I0
(lp3304
I538
atp3305
s(I1
I42
tp3306
(I0
(lp3307
I466
atp3308
s(I6
I17
tp3309
(I0
(lp3310
I619
atp3311
s(I2
I81
tp3312
(I0
(lp3313
I290
atp3314
s(I7
I20
tp3315
(I0
(lp3316
I657
atp3317
s(I5
I36
tp3318
(I0
(lp3319
I56
atp3320
s(I4
I79
tp3321
(I0
(lp3322
I188
atp3323
s(I1
I91
tp3324
(I0
(lp3325
I327
atp3326
s(I2
I75
tp3327
(I0
(lp3328
I296
atp3329
s(I8
I10
tp3330
(I0
(lp3331
I16
atp3332
s(I0
I103
tp3333
(I0
(lp3334
I380
atp3335
s(I9
I11
tp3336
(I0
(lp3337
I38
atp3338
s(I3
I93
tp3339
(I0
(lp3340
I217
atp3341
s(I4
I85
tp3342
(I0
(lp3343
I182
atp3344
s(I2
I101
tp3345
(I0
(lp3346
I270
atp3347
s(I8
I16
tp3348
(I0
(lp3349
I10
atp3350
s(I5
I95
tp3351
(I0
(lp3352
I115
atp3353
s(I3
I99
tp3354
(I0
(lp3355
I223
atp3356
s(I4
I115
tp3357
(I0
(lp3358
I152
atp3359
s(I5
I121
tp3360
(I0
(lp3361
I141
atp3362
s(I0
I34
tp3363
(I0
(lp3364
I449
atp3365
s(I3
I47
tp3366
(I0
(lp3367
I547
atp3368
s(I1
I35
tp3369
(I0
(lp3370
I459
atp3371
s(I6
I8
tp3372
(I0
(lp3373
I628
atp3374
s(I4
I40
tp3375
(I0
(lp3376
I603
atp3377
s(I2
I40
tp3378
(I0
(lp3379
I519
atp3380
s(I7
I13
tp3381
(I0
(lp3382
I650
atp3383
s(I5
I45
tp3384
(I0
(lp3385
I65
atp3386
s(I3
I53
tp3387
(I0
(lp3388
I553
atp3389
s(I4
I54
tp3390
(I0
(lp3391
I589
atp3392
s(I1
I92
tp3393
(I0
(lp3394
I328
atp3395
s(I2
I66
tp3396
(I0
(lp3397
I493
atp3398
s(I5
I55
tp3399
(I0
(lp3400
I75
atp3401
s(I9
I12
tp3402
(I0
(lp3403
I39
atp3404
s(I3
I66
tp3405
(I0
(lp3406
I566
atp3407
s(I4
I92
tp3408
(I0
(lp3409
I175
atp3410
s(I1
I118
tp3411
(I0
(lp3412
I354
atp3413
s(I8
I23
tp3414
(I0
(lp3415
I3
atp3416
s(I9
I22
tp3417
(I0
(lp3418
I49
atp3419
s(I7
I14
tp3420
(I0
(lp3421
I651
atp3422
s(I5
I88
tp3423
(I0
(lp3424
I108
atp3425
s(I3
I104
tp3426
(I0
(lp3427
I228
atp3428
s(I4
I122
tp3429
(I0
(lp3430
I145
atp3431
s(I1
I104
tp3432
(I0
(lp3433
I340
atp3434
s(I5
I98
tp3435
(I0
(lp3436
I118
atp3437
s(I0
I57
tp3438
(I0
(lp3439
I426
atp3440
s(I1
I36
tp3441
(I0
(lp3442
I460
atp3443
s(I6
I3
tp3444
(I0
(lp3445
I633
atp3446
s(I2
I35
tp3447
(I0
(lp3448
I524
atp3449
s(I7
I10
tp3450
(I0
(lp3451
I647
atp3452
s(I3
I58
tp3453
(I0
(lp3454
I558
atp3455
s(I4
I61
tp3456
(I0
(lp3457
I582
atp3458
s(I1
I85
tp3459
(I0
(lp3460
I321
atp3461
s(I2
I93
tp3462
(I0
(lp3463
I278
atp3464
s(I0
I117
tp3465
(I0
(lp3466
I366
atp3467
s(I5
I48
tp3468
(I0
(lp3469
I68
atp3470
s(I3
I75
tp3471
(I0
(lp3472
I199
atp3473
s(I4
I91
tp3474
(I0
(lp3475
I176
atp3476
s(I1
I79
tp3477
(I0
(lp3478
I315
atp3479
s(I2
I119
tp3480
(I0
(lp3481
I252
atp3482
s(I0
I107
tp3483
(I0
(lp3484
I376
atp3485
s(I5
I65
tp3486
(I0
(lp3487
I85
atp3488
s(I3
I81
tp3489
(I0
(lp3490
I205
atp3491
s(I4
I97
tp3492
(I0
(lp3493
I170
atp3494
s(I1
I97
tp3495
(I0
(lp3496
I333
atp3497
s(I5
I107
tp3498
(I0
(lp3499
I127
atp3500
s(I3
I119
tp3501
(I0
(lp3502
I243
atp3503
s(I0
I48
tp3504
(I0
(lp3505
I435
atp3506
s(I5
I117
tp3507
(I0
(lp3508
I137
atp3509
s(I1
I61
tp3510
(I0
(lp3511
I485
atp3512
s(I2
I58
tp3513
(I0
(lp3514
I501
atp3515
ssb(dp3516
I0
(I17
I9
tp3517
sI1
(I16
I9
tp3518
sI2
(I16
I10
tp3519
sI3
(I16
I11
tp3520
sI4
(I17
I11
tp3521
sI5
(I17
I10
tp3522
sI6
(I14
I4
tp3523
sI7
(I13
I4
tp3524
sI8
(I15
I5
tp3525
sI9
(I14
I5
tp3526
stp3527
.