(ccopy_reg
_reconstructor
p0
(corigami_utils
vhelix_vbase_to_nucleotide
p1
c__builtin__
object
p2
Ntp3
Rp4
(dp5
S'strand_count'
p6
I0
sS'nuc_count'
p7
I0
sS'_stap'
p8
(dp9
(I2
I103
tp10
(I5
(lp11
I463
atp12
s(I0
I86
tp13
(I3
(lp14
I397
atp15
s(I3
I108
tp16
(I6
(lp17
I517
atp18
s(I4
I102
tp19
(I8
(lp20
I614
atp21
s(I1
I108
tp22
(I6
(lp23
I503
atp24
s(I0
I89
tp25
(I3
(lp26
I400
atp27
s(I5
I81
tp28
(I3
(lp29
I411
atp30
s(I3
I97
tp31
(I5
(lp32
I444
atp33
s(I4
I113
tp34
(I7
(lp35
I541
atp36
s(I2
I84
tp37
(I8
(lp38
I568
atp39
s(I5
I110
tp40
(I7
(lp41
I527
atp42
s(I3
I114
tp43
(I7
(lp44
I551
atp45
s(I1
I83
tp46
(I3
(lp47
I381
atp48
s(I0
I98
tp49
(I4
(lp50
I430
atp51
s(I4
I93
tp52
(I8
(lp53
I605
atp54
s(I1
I117
tp55
(I6
(lp56
I494
atp57
s(I3
I86
tp58
(I8
(lp59
I579
atp60
s(I4
I104
tp61
(I8
(lp62
I616
atp63
s(I2
I104
tp64
(I5
(lp65
I464
atp66
s(I0
I83
tp67
(I3
(lp68
I394
atp69
s(I3
I107
tp70
(I6
(lp71
I518
atp72
s(I1
I111
tp73
(I6
(lp74
I500
atp75
s(I5
I84
tp76
(I3
(lp77
I408
atp78
s(I4
I118
tp79
(I7
(lp80
I546
atp81
s(I2
I89
tp82
(I8
(lp83
I573
atp84
s(I5
I97
tp85
(I4
(lp86
I416
atp87
s(I3
I113
tp88
(I7
(lp89
I552
atp90
s(I1
I94
tp91
(I5
(lp92
I475
atp93
s(I3
I79
tp94
(I8
(lp95
I586
atp96
s(I2
I115
tp97
(I7
(lp98
I557
atp99
s(I0
I111
tp100
(I6
(lp101
I485
atp102
s(I4
I82
tp103
(I8
(lp104
I594
atp105
s(I1
I112
tp106
(I6
(lp107
I499
atp108
s(I3
I85
tp109
(I8
(lp110
I580
atp111
s(I4
I109
tp112
(I7
(lp113
I537
atp114
s(I1
I101
tp115
(I5
(lp116
I468
atp117
s(I2
I109
tp118
(I6
(lp119
I511
atp120
s(I0
I80
tp121
(I3
(lp122
I391
atp123
s(I5
I90
tp124
(I3
(lp125
I402
atp126
s(I3
I102
tp127
(I5
(lp128
I439
atp129
s(I1
I106
tp130
(I6
(lp131
I505
atp132
s(I5
I87
tp133
(I3
(lp134
I405
atp135
s(I1
I84
tp136
(I3
(lp137
I380
atp138
s(I2
I90
tp139
(I8
(lp140
I574
atp141
s(I0
I118
tp142
(I6
(lp143
I492
atp144
s(I5
I100
tp145
(I8
(lp146
I621
atp147
s(I1
I89
tp148
(I3
(lp149
I375
atp150
s(I5
I113
tp151
(I7
(lp152
I524
atp153
s(I1
I78
tp154
(I3
(lp155
I386
atp156
s(I2
I116
tp157
(I7
(lp158
I558
atp159
s(I0
I108
tp160
(I6
(lp161
I482
atp162
s(I3
I95
tp163
(I5
(lp164
I446
atp165
s(I4
I87
tp166
(I8
(lp167
I599
atp168
s(I1
I115
tp169
(I6
(lp170
I496
atp171
s(I2
I99
tp172
(I5
(lp173
I459
atp174
s(I3
I80
tp175
(I8
(lp176
I585
atp177
s(I4
I98
tp178
(I8
(lp179
I610
atp180
s(I1
I96
tp181
(I5
(lp182
I473
atp183
s(I2
I110
tp184
(I6
(lp185
I512
atp186
s(I0
I93
tp187
(I4
(lp188
I425
atp189
s(I5
I93
tp190
(I4
(lp191
I420
atp192
s(I3
I101
tp193
(I5
(lp194
I440
atp195
s(I2
I80
tp196
(I8
(lp197
I564
atp198
s(I5
I106
tp199
(I7
(lp200
I531
atp201
s(I3
I118
tp202
(I7
(lp203
I547
atp204
s(I1
I87
tp205
(I3
(lp206
I377
atp207
s(I2
I95
tp208
(I5
(lp209
I455
atp210
s(I0
I115
tp211
(I6
(lp212
I489
atp213
s(I5
I103
tp214
(I8
(lp215
I618
atp216
s(I4
I78
tp217
(I8
(lp218
I590
atp219
s(I0
I102
tp220
(I4
(lp221
I434
atp222
s(I5
I116
tp223
(I7
(lp224
I521
atp225
s(I4
I89
tp226
(I8
(lp227
I601
atp228
s(I0
I105
tp229
(I6
(lp230
I479
atp231
s(I3
I90
tp232
(I8
(lp233
I575
atp234
s(I4
I84
tp235
(I8
(lp236
I596
atp237
s(I2
I100
tp238
(I5
(lp239
I460
atp240
s(I0
I87
tp241
(I3
(lp242
I398
atp243
s(I3
I111
tp244
(I6
(lp245
I514
atp246
s(I4
I103
tp247
(I8
(lp248
I615
atp249
s(I1
I99
tp250
(I5
(lp251
I470
atp252
s(I0
I90
tp253
(I3
(lp254
I401
atp255
s(I5
I80
tp256
(I3
(lp257
I412
atp258
s(I3
I96
tp259
(I5
(lp260
I445
atp261
s(I4
I114
tp262
(I7
(lp263
I542
atp264
s(I2
I85
tp265
(I8
(lp266
I569
atp267
s(I0
I77
tp268
(I3
(lp269
I388
atp270
s(I5
I109
tp271
(I7
(lp272
I528
atp273
s(I3
I117
tp274
(I7
(lp275
I548
atp276
s(I1
I82
tp277
(I3
(lp278
I382
atp279
s(I0
I112
tp280
(I6
(lp281
I486
atp282
s(I2
I79
tp283
(I8
(lp284
I563
atp285
s(I0
I99
tp286
(I4
(lp287
I431
atp288
s(I4
I94
tp289
(I8
(lp290
I606
atp291
s(I1
I116
tp292
(I6
(lp293
I495
atp294
s(I3
I89
tp295
(I8
(lp296
I576
atp297
s(I4
I105
tp298
(I7
(lp299
I533
atp300
s(I2
I105
tp301
(I6
(lp302
I507
atp303
s(I0
I84
tp304
(I3
(lp305
I395
atp306
s(I3
I106
tp307
(I6
(lp308
I519
atp309
s(I4
I100
tp310
(I8
(lp311
I612
atp312
s(I1
I110
tp313
(I6
(lp314
I501
atp315
s(I5
I83
tp316
(I3
(lp317
I409
atp318
s(I2
I86
tp319
(I8
(lp320
I570
atp321
s(I5
I96
tp322
(I4
(lp323
I417
atp324
s(I3
I112
tp325
(I7
(lp326
I553
atp327
s(I1
I93
tp328
(I5
(lp329
I476
atp330
s(I3
I78
tp331
(I8
(lp332
I587
atp333
s(I2
I112
tp334
(I7
(lp335
I554
atp336
s(I0
I96
tp337
(I4
(lp338
I428
atp339
s(I4
I83
tp340
(I8
(lp341
I595
atp342
s(I3
I84
tp343
(I8
(lp344
I581
atp345
s(I4
I110
tp346
(I7
(lp347
I538
atp348
s(I1
I100
tp349
(I5
(lp350
I469
atp351
s(I2
I106
tp352
(I6
(lp353
I508
atp354
s(I0
I81
tp355
(I3
(lp356
I392
atp357
s(I5
I89
tp358
(I3
(lp359
I403
atp360
s(I3
I105
tp361
(I6
(lp362
I520
atp363
s(I1
I105
tp364
(I6
(lp365
I506
atp366
s(I5
I86
tp367
(I3
(lp368
I406
atp369
s(I4
I116
tp370
(I7
(lp371
I544
atp372
s(I2
I91
tp373
(I5
(lp374
I451
atp375
s(I5
I99
tp376
(I4
(lp377
I414
atp378
s(I1
I88
tp379
(I3
(lp380
I376
atp381
s(I5
I112
tp382
(I7
(lp383
I525
atp384
s(I3
I77
tp385
(I8
(lp386
I588
atp387
s(I1
I77
tp388
(I3
(lp389
I387
atp390
s(I2
I117
tp391
(I7
(lp392
I559
atp393
s(I0
I109
tp394
(I6
(lp395
I483
atp396
s(I3
I94
tp397
(I5
(lp398
I447
atp399
s(I4
I80
tp400
(I8
(lp401
I592
atp402
s(I1
I114
tp403
(I6
(lp404
I497
atp405
s(I2
I96
tp406
(I5
(lp407
I456
atp408
s(I5
I79
tp409
(I3
(lp410
I413
atp411
s(I3
I83
tp412
(I8
(lp413
I582
atp414
s(I4
I99
tp415
(I8
(lp416
I611
atp417
s(I1
I103
tp418
(I5
(lp419
I466
atp420
s(I2
I111
tp421
(I6
(lp422
I513
atp423
s(I0
I94
tp424
(I4
(lp425
I426
atp426
s(I5
I92
tp427
(I4
(lp428
I421
atp429
s(I3
I100
tp430
(I5
(lp431
I441
atp432
s(I2
I81
tp433
(I8
(lp434
I565
atp435
s(I5
I105
tp436
(I7
(lp437
I532
atp438
s(I1
I86
tp439
(I3
(lp440
I378
atp441
s(I2
I92
tp442
(I5
(lp443
I452
atp444
s(I0
I116
tp445
(I6
(lp446
I490
atp447
s(I5
I102
tp448
(I8
(lp449
I619
atp450
s(I4
I79
tp451
(I8
(lp452
I591
atp453
s(I1
I91
tp454
(I5
(lp455
I478
atp456
s(I0
I103
tp457
(I4
(lp458
I435
atp459
s(I5
I115
tp460
(I7
(lp461
I522
atp462
s(I4
I90
tp463
(I8
(lp464
I602
atp465
s(I2
I118
tp466
(I7
(lp467
I560
atp468
s(I0
I106
tp469
(I6
(lp470
I480
atp471
s(I3
I93
tp472
(I5
(lp473
I448
atp474
s(I4
I85
tp475
(I8
(lp476
I597
atp477
s(I2
I101
tp478
(I5
(lp479
I461
atp480
s(I3
I110
tp481
(I6
(lp482
I515
atp483
s(I4
I96
tp484
(I8
(lp485
I608
atp486
s(I1
I98
tp487
(I5
(lp488
I471
atp489
s(I0
I91
tp490
(I4
(lp491
I423
atp492
s(I5
I95
tp493
(I4
(lp494
I418
atp495
s(I3
I99
tp496
(I5
(lp497
I442
atp498
s(I4
I115
tp499
(I7
(lp500
I543
atp501
s(I2
I82
tp502
(I8
(lp503
I566
atp504
s(I0
I78
tp505
(I3
(lp506
I389
atp507
s(I5
I108
tp508
(I7
(lp509
I529
atp510
s(I3
I116
tp511
(I7
(lp512
I549
atp513
s(I1
I81
tp514
(I3
(lp515
I383
atp516
s(I0
I113
tp517
(I6
(lp518
I487
atp519
s(I0
I100
tp520
(I4
(lp521
I432
atp522
s(I4
I95
tp523
(I8
(lp524
I607
atp525
s(I3
I88
tp526
(I8
(lp527
I577
atp528
s(I4
I106
tp529
(I7
(lp530
I534
atp531
s(I2
I102
tp532
(I5
(lp533
I462
atp534
s(I0
I85
tp535
(I3
(lp536
I396
atp537
s(I3
I109
tp538
(I6
(lp539
I516
atp540
s(I4
I101
tp541
(I8
(lp542
I613
atp543
s(I1
I109
tp544
(I6
(lp545
I502
atp546
s(I0
I88
tp547
(I3
(lp548
I399
atp549
s(I5
I82
tp550
(I3
(lp551
I410
atp552
s(I4
I112
tp553
(I7
(lp554
I540
atp555
s(I2
I87
tp556
(I8
(lp557
I571
atp558
s(I5
I111
tp559
(I7
(lp560
I526
atp561
s(I3
I115
tp562
(I7
(lp563
I550
atp564
s(I1
I92
tp565
(I5
(lp566
I477
atp567
s(I2
I113
tp568
(I7
(lp569
I555
atp570
s(I0
I97
tp571
(I4
(lp572
I429
atp573
s(I4
I92
tp574
(I8
(lp575
I604
atp576
s(I1
I118
tp577
(I6
(lp578
I493
atp579
s(I3
I87
tp580
(I8
(lp581
I578
atp582
s(I4
I111
tp583
(I7
(lp584
I539
atp585
s(I2
I107
tp586
(I6
(lp587
I509
atp588
s(I0
I82
tp589
(I3
(lp590
I393
atp591
s(I5
I88
tp592
(I3
(lp593
I404
atp594
s(I3
I104
tp595
(I5
(lp596
I437
atp597
s(I1
I104
tp598
(I5
(lp599
I465
atp600
s(I5
I85
tp601
(I3
(lp602
I407
atp603
s(I4
I117
tp604
(I7
(lp605
I545
atp606
s(I2
I88
tp607
(I8
(lp608
I572
atp609
s(I5
I98
tp610
(I4
(lp611
I415
atp612
s(I1
I95
tp613
(I5
(lp614
I474
atp615
s(I2
I114
tp616
(I7
(lp617
I556
atp618
s(I0
I110
tp619
(I6
(lp620
I484
atp621
s(I4
I81
tp622
(I8
(lp623
I593
atp624
s(I1
I113
tp625
(I6
(lp626
I498
atp627
s(I2
I97
tp628
(I5
(lp629
I457
atp630
s(I3
I82
tp631
(I8
(lp632
I583
atp633
s(I4
I108
tp634
(I7
(lp635
I536
atp636
s(I1
I102
tp637
(I5
(lp638
I467
atp639
s(I2
I108
tp640
(I6
(lp641
I510
atp642
s(I0
I95
tp643
(I4
(lp644
I427
atp645
s(I5
I91
tp646
(I4
(lp647
I422
atp648
s(I3
I103
tp649
(I5
(lp650
I438
atp651
s(I1
I107
tp652
(I6
(lp653
I504
atp654
s(I5
I104
tp655
(I8
(lp656
I617
atp657
s(I1
I85
tp658
(I3
(lp659
I379
atp660
s(I2
I93
tp661
(I5
(lp662
I453
atp663
s(I0
I117
tp664
(I6
(lp665
I491
atp666
s(I5
I101
tp667
(I8
(lp668
I620
atp669
s(I1
I90
tp670
(I3
(lp671
I374
atp672
s(I5
I114
tp673
(I7
(lp674
I523
atp675
s(I4
I91
tp676
(I8
(lp677
I603
atp678
s(I1
I79
tp679
(I3
(lp680
I385
atp681
s(I2
I119
tp682
(I7
(lp683
I561
atp684
s(I0
I107
tp685
(I6
(lp686
I481
atp687
s(I3
I92
tp688
(I5
(lp689
I449
atp690
s(I4
I86
tp691
(I8
(lp692
I598
atp693
s(I2
I98
tp694
(I5
(lp695
I458
atp696
s(I3
I81
tp697
(I8
(lp698
I584
atp699
s(I4
I97
tp700
(I8
(lp701
I609
atp702
s(I1
I97
tp703
(I5
(lp704
I472
atp705
s(I0
I92
tp706
(I4
(lp707
I424
atp708
s(I5
I94
tp709
(I4
(lp710
I419
atp711
s(I3
I98
tp712
(I5
(lp713
I443
atp714
s(I2
I83
tp715
(I8
(lp716
I567
atp717
s(I0
I79
tp718
(I3
(lp719
I390
atp720
s(I5
I107
tp721
(I7
(lp722
I530
atp723
s(I1
I80
tp724
(I3
(lp725
I384
atp726
s(I2
I94
tp727
(I5
(lp728
I454
atp729
s(I0
I114
tp730
(I6
(lp731
I488
atp732
s(I4
I77
tp733
(I8
(lp734
I589
atp735
s(I0
I101
tp736
(I4
(lp737
I433
atp738
s(I4
I88
tp739
(I8
(lp740
I600
atp741
s(I2
I120
tp742
(I7
(lp743
I562
atp744
s(I0
I104
tp745
(I4
(lp746
I436
atp747
s(I3
I91
tp748
(I5
(lp749
I450
atp750
s(I4
I107
tp751
(I7
(lp752
I535
atp753
ssS'_scaf'
p754
(dp755
(I0
I86
tp756
(I0
(lp757
I220
atp758
s(I3
I35
tp759
(I0
(lp760
I18
atp761
s(I2
I84
tp762
(I1
(lp763
I306
atp764
s(I0
I76
tp765
(I0
(lp766
I230
atp767
s(I0
I98
tp768
(I0
(lp769
I208
atp770
s(I3
I86
tp771
(I0
(lp772
I69
atp773
s(I4
I104
tp774
(I0
(lp775
I126
atp776
s(I2
I104
tp777
(I2
(lp778
I370
atp779
s(I0
I17
tp780
(I0
(lp781
I289
atp782
s(I5
I84
tp783
(I0
(lp784
I157
atp785
s(I4
I118
tp786
(I0
(lp787
I112
atp788
s(I0
I55
tp789
(I0
(lp790
I251
atp791
s(I0
I45
tp792
(I0
(lp793
I261
atp794
s(I3
I40
tp795
(I0
(lp796
I23
atp797
s(I0
I67
tp798
(I0
(lp799
I239
atp800
s(I1
I89
tp801
(I1
(lp802
I322
atp803
s(I3
I95
tp804
(I0
(lp805
I78
atp806
s(I4
I87
tp807
(I0
(lp808
I143
atp809
s(I1
I115
tp810
(I2
(lp811
I348
atp812
s(I2
I99
tp813
(I1
(lp814
I291
atp815
s(I5
I93
tp816
(I0
(lp817
I166
atp818
s(I3
I101
tp819
(I0
(lp820
I84
atp821
s(I5
I103
tp822
(I0
(lp823
I176
atp824
s(I0
I36
tp825
(I0
(lp826
I270
atp827
s(I3
I17
tp828
(I0
(lp829
I0
atp830
s(I0
I90
tp831
(I0
(lp832
I216
atp833
s(I3
I55
tp834
(I0
(lp835
I38
atp836
s(I1
I82
tp837
(I1
(lp838
I315
atp839
s(I0
I112
tp840
(I0
(lp841
I194
atp842
s(I3
I68
tp843
(I0
(lp844
I51
atp845
s(I4
I94
tp846
(I0
(lp847
I136
atp848
s(I1
I116
tp849
(I2
(lp850
I349
atp851
s(I3
I106
tp852
(I0
(lp853
I89
atp854
s(I4
I100
tp855
(I0
(lp856
I130
atp857
s(I1
I110
tp858
(I2
(lp859
I343
atp860
s(I5
I96
tp861
(I0
(lp862
I169
atp863
s(I3
I112
tp864
(I0
(lp865
I95
atp866
s(I0
I59
tp867
(I0
(lp868
I247
atp869
s(I3
I22
tp870
(I0
(lp871
I5
atp872
s(I0
I81
tp873
(I0
(lp874
I225
atp875
s(I3
I60
tp876
(I0
(lp877
I43
atp878
s(I2
I91
tp879
(I1
(lp880
I299
atp881
s(I3
I77
tp882
(I0
(lp883
I60
atp884
s(I2
I117
tp885
(I2
(lp886
I357
atp887
s(I0
I109
tp888
(I0
(lp889
I197
atp890
s(I5
I79
tp891
(I0
(lp892
I152
atp893
s(I3
I83
tp894
(I0
(lp895
I66
atp896
s(I4
I99
tp897
(I0
(lp898
I131
atp899
s(I1
I103
tp900
(I2
(lp901
I336
atp902
s(I2
I111
tp903
(I2
(lp904
I363
atp905
s(I0
I28
tp906
(I0
(lp907
I278
atp908
s(I5
I105
tp909
(I0
(lp910
I178
atp911
s(I3
I121
tp912
(I0
(lp913
I104
atp914
s(I0
I50
tp915
(I0
(lp916
I256
atp917
s(I5
I115
tp918
(I0
(lp919
I188
atp920
s(I3
I31
tp921
(I0
(lp922
I14
atp923
s(I0
I40
tp924
(I0
(lp925
I266
atp926
s(I3
I37
tp927
(I0
(lp928
I20
atp929
s(I2
I82
tp930
(I1
(lp931
I308
atp932
s(I0
I78
tp933
(I0
(lp934
I228
atp935
s(I0
I100
tp936
(I0
(lp937
I206
atp938
s(I3
I88
tp939
(I0
(lp940
I71
atp941
s(I4
I106
tp942
(I0
(lp943
I124
atp944
s(I1
I120
tp945
(I2
(lp946
I353
atp947
s(I2
I102
tp948
(I2
(lp949
I372
atp950
s(I0
I19
tp951
(I0
(lp952
I287
atp953
s(I5
I82
tp954
(I0
(lp955
I155
atp956
s(I4
I112
tp957
(I0
(lp958
I118
atp959
s(I0
I47
tp960
(I0
(lp961
I259
atp962
s(I3
I42
tp963
(I0
(lp964
I25
atp965
s(I0
I69
tp966
(I0
(lp967
I237
atp968
s(I3
I48
tp969
(I0
(lp970
I31
atp971
s(I1
I95
tp972
(I1
(lp973
I328
atp974
s(I3
I65
tp975
(I0
(lp976
I48
atp977
s(I4
I81
tp978
(I0
(lp979
I149
atp980
s(I1
I113
tp981
(I2
(lp982
I346
atp983
s(I2
I97
tp984
(I1
(lp985
I293
atp986
s(I5
I91
tp987
(I0
(lp988
I164
atp989
s(I3
I103
tp990
(I0
(lp991
I86
atp992
s(I1
I107
tp993
(I2
(lp994
I340
atp995
s(I5
I101
tp996
(I0
(lp997
I174
atp998
s(I0
I38
tp999
(I0
(lp1000
I268
atp1001
s(I3
I19
tp1002
(I0
(lp1003
I2
atp1004
s(I0
I92
tp1005
(I0
(lp1006
I214
atp1007
s(I3
I57
tp1008
(I0
(lp1009
I40
atp1010
s(I1
I80
tp1011
(I1
(lp1012
I313
atp1013
s(I2
I94
tp1014
(I1
(lp1015
I296
atp1016
s(I0
I114
tp1017
(I0
(lp1018
I192
atp1019
s(I3
I70
tp1020
(I0
(lp1021
I53
atp1022
s(I4
I88
tp1023
(I0
(lp1024
I142
atp1025
s(I2
I120
tp1026
(I2
(lp1027
I354
atp1028
s(I0
I104
tp1029
(I0
(lp1030
I202
atp1031
s(I3
I108
tp1032
(I0
(lp1033
I91
atp1034
s(I4
I102
tp1035
(I0
(lp1036
I128
atp1037
s(I1
I108
tp1038
(I2
(lp1039
I341
atp1040
s(I5
I110
tp1041
(I0
(lp1042
I183
atp1043
s(I3
I114
tp1044
(I0
(lp1045
I97
atp1046
s(I0
I61
tp1047
(I0
(lp1048
I245
atp1049
s(I3
I24
tp1050
(I0
(lp1051
I7
atp1052
s(I0
I83
tp1053
(I0
(lp1054
I223
atp1055
s(I3
I62
tp1056
(I0
(lp1057
I45
atp1058
s(I2
I89
tp1059
(I1
(lp1060
I301
atp1061
s(I0
I73
tp1062
(I0
(lp1063
I233
atp1064
s(I3
I79
tp1065
(I0
(lp1066
I62
atp1067
s(I2
I115
tp1068
(I2
(lp1069
I359
atp1070
s(I0
I111
tp1071
(I0
(lp1072
I195
atp1073
s(I3
I85
tp1074
(I0
(lp1075
I68
atp1076
s(I4
I109
tp1077
(I0
(lp1078
I121
atp1079
s(I1
I101
tp1080
(I2
(lp1081
I334
atp1082
s(I2
I109
tp1083
(I2
(lp1084
I365
atp1085
s(I0
I30
tp1086
(I0
(lp1087
I276
atp1088
s(I5
I87
tp1089
(I0
(lp1090
I160
atp1091
s(I3
I123
tp1092
(I0
(lp1093
I106
atp1094
s(I0
I52
tp1095
(I0
(lp1096
I254
atp1097
s(I5
I113
tp1098
(I0
(lp1099
I186
atp1100
s(I0
I42
tp1101
(I0
(lp1102
I264
atp1103
s(I3
I39
tp1104
(I0
(lp1105
I22
atp1106
s(I2
I80
tp1107
(I1
(lp1108
I310
atp1109
s(I0
I64
tp1110
(I0
(lp1111
I242
atp1112
s(I0
I102
tp1113
(I0
(lp1114
I204
atp1115
s(I3
I90
tp1116
(I0
(lp1117
I73
atp1118
s(I4
I84
tp1119
(I0
(lp1120
I146
atp1121
s(I2
I100
tp1122
(I1
(lp1123
I290
atp1124
s(I0
I21
tp1125
(I0
(lp1126
I285
atp1127
s(I5
I80
tp1128
(I0
(lp1129
I153
atp1130
s(I3
I96
tp1131
(I0
(lp1132
I79
atp1133
s(I4
I114
tp1134
(I0
(lp1135
I116
atp1136
s(I0
I33
tp1137
(I0
(lp1138
I273
atp1139
s(I3
I44
tp1140
(I0
(lp1141
I27
atp1142
s(I0
I71
tp1143
(I0
(lp1144
I235
atp1145
s(I3
I50
tp1146
(I0
(lp1147
I33
atp1148
s(I1
I93
tp1149
(I1
(lp1150
I326
atp1151
s(I3
I67
tp1152
(I0
(lp1153
I50
atp1154
s(I4
I83
tp1155
(I0
(lp1156
I147
atp1157
s(I1
I119
tp1158
(I2
(lp1159
I352
atp1160
s(I5
I89
tp1161
(I0
(lp1162
I162
atp1163
s(I3
I105
tp1164
(I0
(lp1165
I88
atp1166
s(I4
I121
tp1167
(I0
(lp1168
I109
atp1169
s(I1
I105
tp1170
(I2
(lp1171
I338
atp1172
s(I5
I99
tp1173
(I0
(lp1174
I172
atp1175
s(I0
I56
tp1176
(I0
(lp1177
I250
atp1178
s(I3
I21
tp1179
(I0
(lp1180
I4
atp1181
s(I0
I94
tp1182
(I0
(lp1183
I212
atp1184
s(I3
I59
tp1185
(I0
(lp1186
I42
atp1187
s(I1
I86
tp1188
(I1
(lp1189
I319
atp1190
s(I2
I92
tp1191
(I1
(lp1192
I298
atp1193
s(I0
I116
tp1194
(I0
(lp1195
I190
atp1196
s(I3
I72
tp1197
(I0
(lp1198
I55
atp1199
s(I4
I90
tp1200
(I0
(lp1201
I140
atp1202
s(I2
I118
tp1203
(I2
(lp1204
I356
atp1205
s(I0
I106
tp1206
(I0
(lp1207
I200
atp1208
s(I3
I110
tp1209
(I0
(lp1210
I93
atp1211
s(I4
I96
tp1212
(I0
(lp1213
I134
atp1214
s(I1
I98
tp1215
(I2
(lp1216
I331
atp1217
s(I0
I25
tp1218
(I0
(lp1219
I281
atp1220
s(I5
I108
tp1221
(I0
(lp1222
I181
atp1223
s(I3
I116
tp1224
(I0
(lp1225
I99
atp1226
s(I0
I63
tp1227
(I0
(lp1228
I243
atp1229
s(I3
I26
tp1230
(I0
(lp1231
I9
atp1232
s(I0
I85
tp1233
(I0
(lp1234
I221
atp1235
s(I3
I32
tp1236
(I0
(lp1237
I15
atp1238
s(I2
I87
tp1239
(I1
(lp1240
I303
atp1241
s(I0
I75
tp1242
(I0
(lp1243
I231
atp1244
s(I2
I113
tp1245
(I2
(lp1246
I361
atp1247
s(I0
I97
tp1248
(I0
(lp1249
I209
atp1250
s(I3
I87
tp1251
(I0
(lp1252
I70
atp1253
s(I4
I111
tp1254
(I0
(lp1255
I119
atp1256
s(I2
I107
tp1257
(I2
(lp1258
I367
atp1259
s(I5
I85
tp1260
(I0
(lp1261
I158
atp1262
s(I4
I117
tp1263
(I0
(lp1264
I113
atp1265
s(I0
I54
tp1266
(I0
(lp1267
I252
atp1268
s(I0
I44
tp1269
(I0
(lp1270
I262
atp1271
s(I3
I41
tp1272
(I0
(lp1273
I24
atp1274
s(I0
I66
tp1275
(I0
(lp1276
I240
atp1277
s(I1
I90
tp1278
(I1
(lp1279
I323
atp1280
s(I3
I92
tp1281
(I0
(lp1282
I75
atp1283
s(I4
I86
tp1284
(I0
(lp1285
I144
atp1286
s(I2
I98
tp1287
(I1
(lp1288
I292
atp1289
s(I0
I23
tp1290
(I0
(lp1291
I283
atp1292
s(I5
I94
tp1293
(I0
(lp1294
I167
atp1295
s(I3
I98
tp1296
(I0
(lp1297
I81
atp1298
s(I0
I35
tp1299
(I0
(lp1300
I271
atp1301
s(I3
I46
tp1302
(I0
(lp1303
I29
atp1304
s(I0
I89
tp1305
(I0
(lp1306
I217
atp1307
s(I3
I52
tp1308
(I0
(lp1309
I35
atp1310
s(I1
I83
tp1311
(I1
(lp1312
I316
atp1313
s(I3
I69
tp1314
(I0
(lp1315
I52
atp1316
s(I4
I93
tp1317
(I0
(lp1318
I137
atp1319
s(I1
I117
tp1320
(I2
(lp1321
I350
atp1322
s(I3
I107
tp1323
(I0
(lp1324
I90
atp1325
s(I4
I123
tp1326
(I0
(lp1327
I107
atp1328
s(I1
I111
tp1329
(I2
(lp1330
I344
atp1331
s(I5
I97
tp1332
(I0
(lp1333
I170
atp1334
s(I3
I113
tp1335
(I0
(lp1336
I96
atp1337
s(I0
I58
tp1338
(I0
(lp1339
I248
atp1340
s(I3
I23
tp1341
(I0
(lp1342
I6
atp1343
s(I0
I80
tp1344
(I0
(lp1345
I226
atp1346
s(I3
I61
tp1347
(I0
(lp1348
I44
atp1349
s(I1
I84
tp1350
(I1
(lp1351
I317
atp1352
s(I2
I90
tp1353
(I1
(lp1354
I300
atp1355
s(I3
I74
tp1356
(I0
(lp1357
I57
atp1358
s(I2
I116
tp1359
(I2
(lp1360
I358
atp1361
s(I0
I108
tp1362
(I0
(lp1363
I198
atp1364
s(I3
I80
tp1365
(I0
(lp1366
I63
atp1367
s(I4
I98
tp1368
(I0
(lp1369
I132
atp1370
s(I1
I96
tp1371
(I1
(lp1372
I329
atp1373
s(I2
I110
tp1374
(I2
(lp1375
I364
atp1376
s(I0
I27
tp1377
(I0
(lp1378
I279
atp1379
s(I5
I106
tp1380
(I0
(lp1381
I179
atp1382
s(I3
I118
tp1383
(I0
(lp1384
I101
atp1385
s(I0
I49
tp1386
(I0
(lp1387
I257
atp1388
s(I5
I116
tp1389
(I0
(lp1390
I189
atp1391
s(I3
I28
tp1392
(I0
(lp1393
I11
atp1394
s(I0
I87
tp1395
(I0
(lp1396
I219
atp1397
s(I3
I34
tp1398
(I0
(lp1399
I17
atp1400
s(I2
I85
tp1401
(I1
(lp1402
I305
atp1403
s(I0
I77
tp1404
(I0
(lp1405
I229
atp1406
s(I2
I79
tp1407
(I1
(lp1408
I311
atp1409
s(I0
I99
tp1410
(I0
(lp1411
I207
atp1412
s(I3
I89
tp1413
(I0
(lp1414
I72
atp1415
s(I4
I105
tp1416
(I0
(lp1417
I125
atp1418
s(I2
I105
tp1419
(I2
(lp1420
I369
atp1421
s(I0
I18
tp1422
(I0
(lp1423
I288
atp1424
s(I5
I83
tp1425
(I0
(lp1426
I156
atp1427
s(I4
I119
tp1428
(I0
(lp1429
I111
atp1430
s(I0
I46
tp1431
(I0
(lp1432
I260
atp1433
s(I3
I43
tp1434
(I0
(lp1435
I26
atp1436
s(I0
I68
tp1437
(I0
(lp1438
I238
atp1439
s(I3
I49
tp1440
(I0
(lp1441
I32
atp1442
s(I1
I88
tp1443
(I1
(lp1444
I321
atp1445
s(I3
I94
tp1446
(I0
(lp1447
I77
atp1448
s(I4
I80
tp1449
(I0
(lp1450
I150
atp1451
s(I1
I114
tp1452
(I2
(lp1453
I347
atp1454
s(I2
I96
tp1455
(I1
(lp1456
I294
atp1457
s(I5
I92
tp1458
(I0
(lp1459
I165
atp1460
s(I3
I100
tp1461
(I0
(lp1462
I83
atp1463
s(I5
I102
tp1464
(I0
(lp1465
I175
atp1466
s(I0
I37
tp1467
(I0
(lp1468
I269
atp1469
s(I0
I91
tp1470
(I0
(lp1471
I215
atp1472
s(I3
I54
tp1473
(I0
(lp1474
I37
atp1475
s(I1
I81
tp1476
(I1
(lp1477
I314
atp1478
s(I0
I113
tp1479
(I0
(lp1480
I193
atp1481
s(I3
I71
tp1482
(I0
(lp1483
I54
atp1484
s(I4
I95
tp1485
(I0
(lp1486
I135
atp1487
s(I3
I109
tp1488
(I0
(lp1489
I92
atp1490
s(I4
I101
tp1491
(I0
(lp1492
I129
atp1493
s(I1
I109
tp1494
(I2
(lp1495
I342
atp1496
s(I5
I111
tp1497
(I0
(lp1498
I184
atp1499
s(I3
I115
tp1500
(I0
(lp1501
I98
atp1502
s(I0
I60
tp1503
(I0
(lp1504
I246
atp1505
s(I3
I25
tp1506
(I0
(lp1507
I8
atp1508
s(I0
I82
tp1509
(I0
(lp1510
I224
atp1511
s(I3
I63
tp1512
(I0
(lp1513
I46
atp1514
s(I2
I88
tp1515
(I1
(lp1516
I302
atp1517
s(I0
I72
tp1518
(I0
(lp1519
I234
atp1520
s(I3
I76
tp1521
(I0
(lp1522
I59
atp1523
s(I2
I114
tp1524
(I2
(lp1525
I360
atp1526
s(I0
I110
tp1527
(I0
(lp1528
I196
atp1529
s(I3
I82
tp1530
(I0
(lp1531
I65
atp1532
s(I4
I108
tp1533
(I0
(lp1534
I122
atp1535
s(I1
I102
tp1536
(I2
(lp1537
I335
atp1538
s(I2
I108
tp1539
(I2
(lp1540
I366
atp1541
s(I0
I29
tp1542
(I0
(lp1543
I277
atp1544
s(I5
I104
tp1545
(I0
(lp1546
I177
atp1547
s(I3
I120
tp1548
(I0
(lp1549
I103
atp1550
s(I0
I51
tp1551
(I0
(lp1552
I255
atp1553
s(I5
I114
tp1554
(I0
(lp1555
I187
atp1556
s(I3
I30
tp1557
(I0
(lp1558
I13
atp1559
s(I0
I41
tp1560
(I0
(lp1561
I265
atp1562
s(I3
I36
tp1563
(I0
(lp1564
I19
atp1565
s(I2
I83
tp1566
(I1
(lp1567
I307
atp1568
s(I0
I79
tp1569
(I0
(lp1570
I227
atp1571
s(I0
I101
tp1572
(I0
(lp1573
I205
atp1574
s(I3
I91
tp1575
(I0
(lp1576
I74
atp1577
s(I4
I107
tp1578
(I0
(lp1579
I123
atp1580
s(I2
I103
tp1581
(I2
(lp1582
I371
atp1583
s(I0
I20
tp1584
(I0
(lp1585
I286
atp1586
s(I5
I81
tp1587
(I0
(lp1588
I154
atp1589
s(I3
I97
tp1590
(I0
(lp1591
I80
atp1592
s(I4
I113
tp1593
(I0
(lp1594
I117
atp1595
s(I0
I32
tp1596
(I0
(lp1597
I274
atp1598
s(I3
I45
tp1599
(I0
(lp1600
I28
atp1601
s(I0
I70
tp1602
(I0
(lp1603
I236
atp1604
s(I3
I51
tp1605
(I0
(lp1606
I34
atp1607
s(I1
I94
tp1608
(I1
(lp1609
I327
atp1610
s(I3
I64
tp1611
(I0
(lp1612
I47
atp1613
s(I4
I82
tp1614
(I0
(lp1615
I148
atp1616
s(I1
I112
tp1617
(I2
(lp1618
I345
atp1619
s(I5
I90
tp1620
(I0
(lp1621
I163
atp1622
s(I3
I102
tp1623
(I0
(lp1624
I85
atp1625
s(I4
I120
tp1626
(I0
(lp1627
I110
atp1628
s(I1
I106
tp1629
(I2
(lp1630
I339
atp1631
s(I5
I100
tp1632
(I0
(lp1633
I173
atp1634
s(I0
I39
tp1635
(I0
(lp1636
I267
atp1637
s(I3
I18
tp1638
(I0
(lp1639
I1
atp1640
s(I0
I93
tp1641
(I0
(lp1642
I213
atp1643
s(I3
I56
tp1644
(I0
(lp1645
I39
atp1646
s(I1
I87
tp1647
(I1
(lp1648
I320
atp1649
s(I2
I95
tp1650
(I1
(lp1651
I295
atp1652
s(I0
I115
tp1653
(I0
(lp1654
I191
atp1655
s(I3
I73
tp1656
(I0
(lp1657
I56
atp1658
s(I4
I89
tp1659
(I0
(lp1660
I141
atp1661
s(I0
I105
tp1662
(I0
(lp1663
I201
atp1664
s(I3
I111
tp1665
(I0
(lp1666
I94
atp1667
s(I4
I103
tp1668
(I0
(lp1669
I127
atp1670
s(I1
I99
tp1671
(I2
(lp1672
I332
atp1673
s(I0
I24
tp1674
(I0
(lp1675
I282
atp1676
s(I5
I109
tp1677
(I0
(lp1678
I182
atp1679
s(I3
I117
tp1680
(I0
(lp1681
I100
atp1682
s(I0
I62
tp1683
(I0
(lp1684
I244
atp1685
s(I3
I27
tp1686
(I0
(lp1687
I10
atp1688
s(I0
I84
tp1689
(I0
(lp1690
I222
atp1691
s(I3
I33
tp1692
(I0
(lp1693
I16
atp1694
s(I2
I86
tp1695
(I1
(lp1696
I304
atp1697
s(I0
I74
tp1698
(I0
(lp1699
I232
atp1700
s(I3
I78
tp1701
(I0
(lp1702
I61
atp1703
s(I2
I112
tp1704
(I2
(lp1705
I362
atp1706
s(I0
I96
tp1707
(I0
(lp1708
I210
atp1709
s(I3
I84
tp1710
(I0
(lp1711
I67
atp1712
s(I4
I110
tp1713
(I0
(lp1714
I120
atp1715
s(I1
I100
tp1716
(I2
(lp1717
I333
atp1718
s(I2
I106
tp1719
(I2
(lp1720
I368
atp1721
s(I0
I31
tp1722
(I0
(lp1723
I275
atp1724
s(I5
I86
tp1725
(I0
(lp1726
I159
atp1727
s(I3
I122
tp1728
(I0
(lp1729
I105
atp1730
s(I4
I116
tp1731
(I0
(lp1732
I114
atp1733
s(I0
I53
tp1734
(I0
(lp1735
I253
atp1736
s(I5
I112
tp1737
(I0
(lp1738
I185
atp1739
s(I0
I43
tp1740
(I0
(lp1741
I263
atp1742
s(I3
I38
tp1743
(I0
(lp1744
I21
atp1745
s(I2
I81
tp1746
(I1
(lp1747
I309
atp1748
s(I0
I65
tp1749
(I0
(lp1750
I241
atp1751
s(I4
I79
tp1752
(I0
(lp1753
I151
atp1754
s(I1
I91
tp1755
(I1
(lp1756
I324
atp1757
s(I0
I103
tp1758
(I0
(lp1759
I203
atp1760
s(I3
I93
tp1761
(I0
(lp1762
I76
atp1763
s(I4
I85
tp1764
(I0
(lp1765
I145
atp1766
s(I2
I101
tp1767
(I2
(lp1768
I373
atp1769
s(I0
I22
tp1770
(I0
(lp1771
I284
atp1772
s(I5
I95
tp1773
(I0
(lp1774
I168
atp1775
s(I3
I99
tp1776
(I0
(lp1777
I82
atp1778
s(I4
I115
tp1779
(I0
(lp1780
I115
atp1781
s(I0
I34
tp1782
(I0
(lp1783
I272
atp1784
s(I3
I47
tp1785
(I0
(lp1786
I30
atp1787
s(I0
I88
tp1788
(I0
(lp1789
I218
atp1790
s(I3
I53
tp1791
(I0
(lp1792
I36
atp1793
s(I1
I92
tp1794
(I1
(lp1795
I325
atp1796
s(I3
I66
tp1797
(I0
(lp1798
I49
atp1799
s(I4
I92
tp1800
(I0
(lp1801
I138
atp1802
s(I1
I118
tp1803
(I2
(lp1804
I351
atp1805
s(I5
I88
tp1806
(I0
(lp1807
I161
atp1808
s(I3
I104
tp1809
(I0
(lp1810
I87
atp1811
s(I4
I122
tp1812
(I0
(lp1813
I108
atp1814
s(I1
I104
tp1815
(I2
(lp1816
I337
atp1817
s(I5
I98
tp1818
(I0
(lp1819
I171
atp1820
s(I0
I57
tp1821
(I0
(lp1822
I249
atp1823
s(I3
I20
tp1824
(I0
(lp1825
I3
atp1826
s(I0
I95
tp1827
(I0
(lp1828
I211
atp1829
s(I3
I58
tp1830
(I0
(lp1831
I41
atp1832
s(I1
I85
tp1833
(I1
(lp1834
I318
atp1835
s(I2
I93
tp1836
(I1
(lp1837
I297
atp1838
s(I3
I75
tp1839
(I0
(lp1840
I58
atp1841
s(I4
I91
tp1842
(I0
(lp1843
I139
atp1844
s(I1
I79
tp1845
(I1
(lp1846
I312
atp1847
s(I2
I119
tp1848
(I2
(lp1849
I355
atp1850
s(I0
I107
tp1851
(I0
(lp1852
I199
atp1853
s(I3
I81
tp1854
(I0
(lp1855
I64
atp1856
s(I4
I97
tp1857
(I0
(lp1858
I133
atp1859
s(I1
I97
tp1860
(I2
(lp1861
I330
atp1862
s(I0
I26
tp1863
(I0
(lp1864
I280
atp1865
s(I5
I107
tp1866
(I0
(lp1867
I180
atp1868
s(I3
I119
tp1869
(I0
(lp1870
I102
atp1871
s(I0
I48
tp1872
(I0
(lp1873
I258
atp1874
s(I3
I29
tp1875
(I0
(lp1876
I12
atp1877
ssb(dp1878
I0
(I15
I13
tp1879
sI1
(I14
I13
tp1880
sI2
(I14
I14
tp1881
sI3
(I14
I15
tp1882
sI4
(I15
I15
tp1883
sI5
(I15
I14
tp1884
sI6
(I14
I12
tp1885
sI7
(I15
I12
tp1886
sI8
(I14
I16
tp1887
sI9
(I13
I14
tp1888
sI10
(I16
I14
tp1889
sI11
(I15
I16
tp1890
stp1891
.