(ccopy_reg
_reconstructor
p0
(corigami_utils
vhelix_vbase_to_nucleotide
p1
c__builtin__
object
p2
Ntp3
Rp4
(dp5
S'strand_count'
p6
I0
sS'nuc_count'
p7
I0
sS'_stap'
p8
(dp9
(I1
I34
tp10
(I5
(lp11
I221
atp12
s(I0
I20
tp13
(I3
(lp14
I180
atp15
s(I1
I17
tp16
(I4
(lp17
I206
atp18
s(I0
I7
tp19
(I3
(lp20
I167
atp21
s(I1
I6
tp22
(I4
(lp23
I217
atp24
s(I0
I10
tp25
(I3
(lp26
I170
atp27
s(I1
I11
tp28
(I4
(lp29
I212
atp30
s(I0
I61
tp31
(I5
(lp32
I253
atp33
s(I1
I56
tp34
(I2
(lp35
I135
atp36
s(I0
I32
tp37
(I5
(lp38
I224
atp39
s(I1
I45
tp40
(I2
(lp41
I146
atp42
s(I0
I17
tp43
(I3
(lp44
I177
atp45
s(I1
I28
tp46
(I4
(lp47
I195
atp48
s(I0
I4
tp49
(I3
(lp50
I164
atp51
s(I1
I1
tp52
(I3
(lp53
I158
atp54
s(I0
I55
tp55
(I5
(lp56
I247
atp57
s(I1
I54
tp58
(I2
(lp59
I137
atp60
s(I0
I58
tp61
(I5
(lp62
I250
atp63
s(I1
I59
tp64
(I2
(lp65
I132
atp66
s(I0
I45
tp67
(I5
(lp68
I237
atp69
s(I1
I40
tp70
(I2
(lp71
I151
atp72
s(I0
I30
tp73
(I4
(lp74
I190
atp75
s(I1
I31
tp76
(I4
(lp77
I192
atp78
s(I0
I1
tp79
(I3
(lp80
I161
atp81
s(I1
I12
tp82
(I4
(lp83
I211
atp84
s(I0
I52
tp85
(I5
(lp86
I244
atp87
s(I1
I49
tp88
(I2
(lp89
I142
atp90
s(I0
I39
tp91
(I5
(lp92
I231
atp93
s(I1
I38
tp94
(I2
(lp95
I153
atp96
s(I0
I42
tp97
(I5
(lp98
I234
atp99
s(I1
I43
tp100
(I2
(lp101
I148
atp102
s(I1
I21
tp103
(I4
(lp104
I202
atp105
s(I0
I27
tp106
(I3
(lp107
I187
atp108
s(I1
I26
tp109
(I4
(lp110
I197
atp111
s(I0
I14
tp112
(I3
(lp113
I174
atp114
s(I1
I15
tp115
(I4
(lp116
I208
atp117
s(I0
I49
tp118
(I5
(lp119
I241
atp120
s(I1
I60
tp121
(I2
(lp122
I131
atp123
s(I0
I36
tp124
(I5
(lp125
I228
atp126
s(I1
I33
tp127
(I5
(lp128
I222
atp129
s(I0
I21
tp130
(I3
(lp131
I181
atp132
s(I1
I16
tp133
(I4
(lp134
I207
atp135
s(I0
I24
tp136
(I3
(lp137
I184
atp138
s(I1
I5
tp139
(I4
(lp140
I218
atp141
s(I0
I11
tp142
(I3
(lp143
I171
atp144
s(I1
I10
tp145
(I4
(lp146
I213
atp147
s(I0
I62
tp148
(I5
(lp149
I254
atp150
s(I1
I63
tp151
(I2
(lp152
I128
atp153
s(I0
I33
tp154
(I5
(lp155
I225
atp156
s(I1
I44
tp157
(I2
(lp158
I147
atp159
s(I0
I18
tp160
(I3
(lp161
I178
atp162
s(I1
I19
tp163
(I4
(lp164
I204
atp165
s(I0
I5
tp166
(I3
(lp167
I165
atp168
s(I1
I0
tp169
(I3
(lp170
I159
atp171
s(I0
I8
tp172
(I3
(lp173
I168
atp174
s(I1
I53
tp175
(I2
(lp176
I138
atp177
s(I0
I59
tp178
(I5
(lp179
I251
atp180
s(I1
I58
tp181
(I2
(lp182
I133
atp183
s(I0
I46
tp184
(I5
(lp185
I238
atp186
s(I1
I47
tp187
(I2
(lp188
I144
atp189
s(I0
I31
tp190
(I4
(lp191
I191
atp192
s(I1
I30
tp193
(I4
(lp194
I193
atp195
s(I0
I2
tp196
(I3
(lp197
I162
atp198
s(I1
I3
tp199
(I4
(lp200
I220
atp201
s(I0
I53
tp202
(I5
(lp203
I245
atp204
s(I1
I48
tp205
(I2
(lp206
I143
atp207
s(I0
I56
tp208
(I5
(lp209
I248
atp210
s(I1
I37
tp211
(I2
(lp212
I154
atp213
s(I0
I43
tp214
(I5
(lp215
I235
atp216
s(I1
I42
tp217
(I2
(lp218
I149
atp219
s(I1
I20
tp220
(I4
(lp221
I203
atp222
s(I0
I28
tp223
(I3
(lp224
I188
atp225
s(I1
I25
tp226
(I4
(lp227
I198
atp228
s(I0
I15
tp229
(I3
(lp230
I175
atp231
s(I1
I14
tp232
(I4
(lp233
I209
atp234
s(I0
I50
tp235
(I5
(lp236
I242
atp237
s(I1
I51
tp238
(I2
(lp239
I140
atp240
s(I0
I37
tp241
(I5
(lp242
I229
atp243
s(I1
I32
tp244
(I5
(lp245
I223
atp246
s(I0
I40
tp247
(I5
(lp248
I232
atp249
s(I0
I22
tp250
(I3
(lp251
I182
atp252
s(I1
I23
tp253
(I4
(lp254
I200
atp255
s(I0
I25
tp256
(I3
(lp257
I185
atp258
s(I1
I4
tp259
(I4
(lp260
I219
atp261
s(I0
I12
tp262
(I3
(lp263
I172
atp264
s(I1
I9
tp265
(I4
(lp266
I214
atp267
s(I0
I63
tp268
(I5
(lp269
I255
atp270
s(I1
I62
tp271
(I2
(lp272
I129
atp273
s(I0
I34
tp274
(I5
(lp275
I226
atp276
s(I1
I35
tp277
(I2
(lp278
I156
atp279
s(I0
I19
tp280
(I3
(lp281
I179
atp282
s(I1
I18
tp283
(I4
(lp284
I205
atp285
s(I0
I6
tp286
(I3
(lp287
I166
atp288
s(I1
I7
tp289
(I4
(lp290
I216
atp291
s(I0
I9
tp292
(I3
(lp293
I169
atp294
s(I1
I52
tp295
(I2
(lp296
I139
atp297
s(I0
I60
tp298
(I5
(lp299
I252
atp300
s(I1
I57
tp301
(I2
(lp302
I134
atp303
s(I0
I47
tp304
(I5
(lp305
I239
atp306
s(I1
I46
tp307
(I2
(lp308
I145
atp309
s(I0
I16
tp310
(I3
(lp311
I176
atp312
s(I1
I29
tp313
(I4
(lp314
I194
atp315
s(I0
I3
tp316
(I3
(lp317
I163
atp318
s(I1
I2
tp319
(I3
(lp320
I157
atp321
s(I0
I54
tp322
(I5
(lp323
I246
atp324
s(I1
I55
tp325
(I2
(lp326
I136
atp327
s(I0
I57
tp328
(I5
(lp329
I249
atp330
s(I1
I36
tp331
(I2
(lp332
I155
atp333
s(I0
I44
tp334
(I5
(lp335
I236
atp336
s(I1
I41
tp337
(I2
(lp338
I150
atp339
s(I0
I29
tp340
(I4
(lp341
I189
atp342
s(I1
I24
tp343
(I4
(lp344
I199
atp345
s(I0
I0
tp346
(I3
(lp347
I160
atp348
s(I1
I13
tp349
(I4
(lp350
I210
atp351
s(I0
I51
tp352
(I5
(lp353
I243
atp354
s(I1
I50
tp355
(I2
(lp356
I141
atp357
s(I0
I38
tp358
(I5
(lp359
I230
atp360
s(I1
I39
tp361
(I2
(lp362
I152
atp363
s(I0
I41
tp364
(I5
(lp365
I233
atp366
s(I0
I23
tp367
(I3
(lp368
I183
atp369
s(I1
I22
tp370
(I4
(lp371
I201
atp372
s(I0
I26
tp373
(I3
(lp374
I186
atp375
s(I1
I27
tp376
(I4
(lp377
I196
atp378
s(I0
I13
tp379
(I3
(lp380
I173
atp381
s(I1
I8
tp382
(I4
(lp383
I215
atp384
s(I0
I48
tp385
(I5
(lp386
I240
atp387
s(I1
I61
tp388
(I2
(lp389
I130
atp390
s(I0
I35
tp391
(I5
(lp392
I227
atp393
ssS'_scaf'
p394
(dp395
(I1
I34
tp396
(I1
(lp397
I98
atp398
s(I0
I20
tp399
(I0
(lp400
I43
atp401
s(I1
I17
tp402
(I1
(lp403
I81
atp404
s(I0
I7
tp405
(I0
(lp406
I56
atp407
s(I1
I6
tp408
(I1
(lp409
I70
atp410
s(I0
I10
tp411
(I0
(lp412
I53
atp413
s(I1
I11
tp414
(I1
(lp415
I75
atp416
s(I0
I61
tp417
(I0
(lp418
I2
atp419
s(I1
I56
tp420
(I1
(lp421
I120
atp422
s(I0
I32
tp423
(I0
(lp424
I31
atp425
s(I1
I45
tp426
(I1
(lp427
I109
atp428
s(I0
I17
tp429
(I0
(lp430
I46
atp431
s(I1
I28
tp432
(I1
(lp433
I92
atp434
s(I0
I4
tp435
(I0
(lp436
I59
atp437
s(I1
I1
tp438
(I1
(lp439
I65
atp440
s(I0
I55
tp441
(I0
(lp442
I8
atp443
s(I1
I54
tp444
(I1
(lp445
I118
atp446
s(I0
I58
tp447
(I0
(lp448
I5
atp449
s(I1
I59
tp450
(I1
(lp451
I123
atp452
s(I0
I45
tp453
(I0
(lp454
I18
atp455
s(I1
I40
tp456
(I1
(lp457
I104
atp458
s(I0
I30
tp459
(I0
(lp460
I33
atp461
s(I1
I31
tp462
(I1
(lp463
I95
atp464
s(I0
I1
tp465
(I0
(lp466
I62
atp467
s(I1
I12
tp468
(I1
(lp469
I76
atp470
s(I0
I52
tp471
(I0
(lp472
I11
atp473
s(I1
I49
tp474
(I1
(lp475
I113
atp476
s(I0
I39
tp477
(I0
(lp478
I24
atp479
s(I1
I38
tp480
(I1
(lp481
I102
atp482
s(I0
I42
tp483
(I0
(lp484
I21
atp485
s(I1
I43
tp486
(I1
(lp487
I107
atp488
s(I1
I21
tp489
(I1
(lp490
I85
atp491
s(I0
I27
tp492
(I0
(lp493
I36
atp494
s(I1
I26
tp495
(I1
(lp496
I90
atp497
s(I0
I14
tp498
(I0
(lp499
I49
atp500
s(I1
I15
tp501
(I1
(lp502
I79
atp503
s(I0
I49
tp504
(I0
(lp505
I14
atp506
s(I1
I60
tp507
(I1
(lp508
I124
atp509
s(I0
I36
tp510
(I0
(lp511
I27
atp512
s(I1
I33
tp513
(I1
(lp514
I97
atp515
s(I0
I21
tp516
(I0
(lp517
I42
atp518
s(I1
I16
tp519
(I1
(lp520
I80
atp521
s(I0
I24
tp522
(I0
(lp523
I39
atp524
s(I1
I5
tp525
(I1
(lp526
I69
atp527
s(I0
I11
tp528
(I0
(lp529
I52
atp530
s(I1
I10
tp531
(I1
(lp532
I74
atp533
s(I0
I62
tp534
(I0
(lp535
I1
atp536
s(I1
I63
tp537
(I1
(lp538
I127
atp539
s(I0
I33
tp540
(I0
(lp541
I30
atp542
s(I1
I44
tp543
(I1
(lp544
I108
atp545
s(I0
I18
tp546
(I0
(lp547
I45
atp548
s(I1
I19
tp549
(I1
(lp550
I83
atp551
s(I0
I5
tp552
(I0
(lp553
I58
atp554
s(I1
I0
tp555
(I1
(lp556
I64
atp557
s(I0
I8
tp558
(I0
(lp559
I55
atp560
s(I1
I53
tp561
(I1
(lp562
I117
atp563
s(I0
I59
tp564
(I0
(lp565
I4
atp566
s(I1
I58
tp567
(I1
(lp568
I122
atp569
s(I0
I46
tp570
(I0
(lp571
I17
atp572
s(I1
I47
tp573
(I1
(lp574
I111
atp575
s(I0
I31
tp576
(I0
(lp577
I32
atp578
s(I1
I30
tp579
(I1
(lp580
I94
atp581
s(I0
I2
tp582
(I0
(lp583
I61
atp584
s(I1
I3
tp585
(I1
(lp586
I67
atp587
s(I0
I53
tp588
(I0
(lp589
I10
atp590
s(I1
I48
tp591
(I1
(lp592
I112
atp593
s(I0
I56
tp594
(I0
(lp595
I7
atp596
s(I1
I37
tp597
(I1
(lp598
I101
atp599
s(I0
I43
tp600
(I0
(lp601
I20
atp602
s(I1
I42
tp603
(I1
(lp604
I106
atp605
s(I1
I20
tp606
(I1
(lp607
I84
atp608
s(I0
I28
tp609
(I0
(lp610
I35
atp611
s(I1
I25
tp612
(I1
(lp613
I89
atp614
s(I0
I15
tp615
(I0
(lp616
I48
atp617
s(I1
I14
tp618
(I1
(lp619
I78
atp620
s(I0
I50
tp621
(I0
(lp622
I13
atp623
s(I1
I51
tp624
(I1
(lp625
I115
atp626
s(I0
I37
tp627
(I0
(lp628
I26
atp629
s(I1
I32
tp630
(I1
(lp631
I96
atp632
s(I0
I40
tp633
(I0
(lp634
I23
atp635
s(I0
I22
tp636
(I0
(lp637
I41
atp638
s(I1
I23
tp639
(I1
(lp640
I87
atp641
s(I0
I25
tp642
(I0
(lp643
I38
atp644
s(I1
I4
tp645
(I1
(lp646
I68
atp647
s(I0
I12
tp648
(I0
(lp649
I51
atp650
s(I1
I9
tp651
(I1
(lp652
I73
atp653
s(I0
I63
tp654
(I0
(lp655
I0
atp656
s(I1
I62
tp657
(I1
(lp658
I126
atp659
s(I0
I34
tp660
(I0
(lp661
I29
atp662
s(I1
I35
tp663
(I1
(lp664
I99
atp665
s(I0
I19
tp666
(I0
(lp667
I44
atp668
s(I1
I18
tp669
(I1
(lp670
I82
atp671
s(I0
I6
tp672
(I0
(lp673
I57
atp674
s(I1
I7
tp675
(I1
(lp676
I71
atp677
s(I0
I9
tp678
(I0
(lp679
I54
atp680
s(I1
I52
tp681
(I1
(lp682
I116
atp683
s(I0
I60
tp684
(I0
(lp685
I3
atp686
s(I1
I57
tp687
(I1
(lp688
I121
atp689
s(I0
I47
tp690
(I0
(lp691
I16
atp692
s(I1
I46
tp693
(I1
(lp694
I110
atp695
s(I0
I16
tp696
(I0
(lp697
I47
atp698
s(I1
I29
tp699
(I1
(lp700
I93
atp701
s(I0
I3
tp702
(I0
(lp703
I60
atp704
s(I1
I2
tp705
(I1
(lp706
I66
atp707
s(I0
I54
tp708
(I0
(lp709
I9
atp710
s(I1
I55
tp711
(I1
(lp712
I119
atp713
s(I0
I57
tp714
(I0
(lp715
I6
atp716
s(I1
I36
tp717
(I1
(lp718
I100
atp719
s(I0
I44
tp720
(I0
(lp721
I19
atp722
s(I1
I41
tp723
(I1
(lp724
I105
atp725
s(I0
I29
tp726
(I0
(lp727
I34
atp728
s(I1
I24
tp729
(I1
(lp730
I88
atp731
s(I0
I0
tp732
(I0
(lp733
I63
atp734
s(I1
I13
tp735
(I1
(lp736
I77
atp737
s(I0
I51
tp738
(I0
(lp739
I12
atp740
s(I1
I50
tp741
(I1
(lp742
I114
atp743
s(I0
I38
tp744
(I0
(lp745
I25
atp746
s(I1
I39
tp747
(I1
(lp748
I103
atp749
s(I0
I41
tp750
(I0
(lp751
I22
atp752
s(I0
I23
tp753
(I0
(lp754
I40
atp755
s(I1
I22
tp756
(I1
(lp757
I86
atp758
s(I0
I26
tp759
(I0
(lp760
I37
atp761
s(I1
I27
tp762
(I1
(lp763
I91
atp764
s(I0
I13
tp765
(I0
(lp766
I50
atp767
s(I1
I8
tp768
(I1
(lp769
I72
atp770
s(I0
I48
tp771
(I0
(lp772
I15
atp773
s(I1
I61
tp774
(I1
(lp775
I125
atp776
s(I0
I35
tp777
(I0
(lp778
I28
atp779
ssb(dp780
I0
(I24
I24
tp781
sI1
(I24
I25
tp782
stp783
.