(ccopy_reg
_reconstructor
p0
(corigami_utils
vhelix_vbase_to_nucleotide
p1
c__builtin__
object
p2
Ntp3
Rp4
(dp5
S'strand_count'
p6
I0
sS'nuc_count'
p7
I0
sS'_stap'
p8
(dp9
sS'_scaf'
p10
(dp11
(I1
I21
tp12
(I0
(lp13
I12
atp14
s(I0
I20
tp15
(I0
(lp16
I16
atp17
s(I0
I14
tp18
(I0
(lp19
I22
atp20
s(I1
I17
tp21
(I0
(lp22
I8
atp23
s(I1
I15
tp24
(I0
(lp25
I6
atp26
s(I0
I16
tp27
(I0
(lp28
I20
atp29
s(I0
I10
tp30
(I0
(lp31
I26
atp32
s(I1
I11
tp33
(I0
(lp34
I2
atp35
s(I1
I20
tp36
(I0
(lp37
I11
atp38
s(I0
I21
tp39
(I0
(lp40
I15
atp41
s(I0
I15
tp42
(I0
(lp43
I21
atp44
s(I1
I16
tp45
(I0
(lp46
I7
atp47
s(I1
I14
tp48
(I0
(lp49
I5
atp50
s(I0
I17
tp51
(I0
(lp52
I19
atp53
s(I0
I11
tp54
(I0
(lp55
I25
atp56
s(I1
I10
tp57
(I0
(lp58
I1
atp59
s(I0
I22
tp60
(I0
(lp61
I14
atp62
s(I1
I13
tp63
(I0
(lp64
I4
atp65
s(I0
I18
tp66
(I0
(lp67
I18
atp68
s(I0
I12
tp69
(I0
(lp70
I24
atp71
s(I1
I19
tp72
(I0
(lp73
I10
atp74
s(I1
I9
tp75
(I0
(lp76
I0
atp77
s(I1
I22
tp78
(I0
(lp79
I13
atp80
s(I1
I12
tp81
(I0
(lp82
I3
atp83
s(I0
I19
tp84
(I0
(lp85
I17
atp86
s(I0
I13
tp87
(I0
(lp88
I23
atp89
s(I1
I18
tp90
(I0
(lp91
I9
atp92
s(I0
I9
tp93
(I0
(lp94
I27
atp95
ssb(dp96
I0
(I15
I15
tp97
sI1
(I15
I16
tp98
stp99
.