(ccopy_reg
_reconstructor
p0
(corigami_utils
vhelix_vbase_to_nucleotide
p1
c__builtin__
object
p2
Ntp3
Rp4
(dp5
S'strand_count'
p6
I0
sS'nuc_count'
p7
I0
sS'_stap'
p8
(dp9
(I0
I86
tp10
(I3
(lp11
I406
atp12
s(I4
I135
tp13
(I9
(lp14
I657
atp15
s(I2
I84
tp16
(I7
(lp17
I566
atp18
s(I0
I76
tp19
(I3
(lp20
I396
atp21
s(I2
I78
tp22
(I7
(lp23
I560
atp24
s(I0
I98
tp25
(I4
(lp26
I446
atp27
s(I5
I74
tp28
(I3
(lp29
I427
atp30
s(I3
I86
tp31
(I7
(lp32
I577
atp33
s(I4
I104
tp34
(I10
(lp35
I710
atp36
s(I1
I122
tp37
(I6
(lp38
I531
atp39
s(I2
I104
tp40
(I10
(lp41
I682
atp42
s(I1
I133
tp43
(I8
(lp44
I614
atp45
s(I5
I84
tp46
(I3
(lp47
I417
atp48
s(I3
I124
tp49
(I6
(lp50
I501
atp51
s(I4
I118
tp52
(I10
(lp53
I724
atp54
s(I2
I130
tp55
(I8
(lp56
I626
atp57
s(I5
I126
tp58
(I9
(lp59
I647
atp60
s(I0
I128
tp61
(I8
(lp62
I596
atp63
s(I0
I67
tp64
(I3
(lp65
I387
atp66
s(I2
I73
tp67
(I7
(lp68
I555
atp69
s(I0
I121
tp70
(I5
(lp71
I495
atp72
s(I1
I115
tp73
(I6
(lp74
I538
atp75
s(I3
I101
tp76
(I10
(lp77
I700
atp78
s(I4
I125
tp79
(I10
(lp80
I731
atp81
s(I5
I103
tp82
(I4
(lp83
I468
atp84
s(I0
I135
tp85
(I8
(lp86
I603
atp87
s(I0
I90
tp88
(I3
(lp89
I410
atp90
s(I2
I64
tp91
(I7
(lp92
I546
atp93
s(I0
I112
tp94
(I5
(lp95
I486
atp96
s(I1
I116
tp97
(I6
(lp98
I537
atp99
s(I2
I122
tp100
(I6
(lp101
I524
atp102
s(I5
I70
tp103
(I3
(lp104
I431
atp105
s(I3
I106
tp106
(I10
(lp107
I695
atp108
s(I4
I100
tp109
(I10
(lp110
I706
atp111
s(I1
I110
tp112
(I4
(lp113
I433
atp114
s(I1
I137
tp115
(I8
(lp116
I610
atp117
s(I3
I112
tp118
(I6
(lp119
I513
atp120
s(I5
I131
tp121
(I9
(lp122
I642
atp123
s(I3
I129
tp124
(I8
(lp125
I632
atp126
s(I0
I81
tp127
(I3
(lp128
I401
atp129
s(I0
I119
tp130
(I5
(lp131
I493
atp132
s(I3
I77
tp133
(I7
(lp134
I586
atp135
s(I2
I117
tp136
(I6
(lp137
I519
atp138
s(I0
I109
tp139
(I4
(lp140
I457
atp141
s(I5
I79
tp142
(I3
(lp143
I422
atp144
s(I3
I83
tp145
(I7
(lp146
I580
atp147
s(I4
I99
tp148
(I10
(lp149
I705
atp150
s(I1
I103
tp151
(I4
(lp152
I440
atp153
s(I2
I111
tp154
(I10
(lp155
I689
atp156
s(I1
I130
tp157
(I8
(lp158
I617
atp159
s(I5
I105
tp160
(I4
(lp161
I466
atp162
s(I3
I121
tp163
(I6
(lp164
I504
atp165
s(I2
I137
tp166
(I9
(lp167
I673
atp168
s(I5
I115
tp169
(I5
(lp170
I482
atp171
s(I0
I139
tp172
(I8
(lp173
I607
atp174
s(I3
I134
tp175
(I9
(lp176
I667
atp177
s(I4
I129
tp178
(I9
(lp179
I651
atp180
s(I2
I82
tp181
(I7
(lp182
I564
atp183
s(I0
I78
tp184
(I3
(lp185
I398
atp186
s(I2
I76
tp187
(I7
(lp188
I558
atp189
s(I0
I100
tp190
(I4
(lp191
I448
atp192
s(I5
I72
tp193
(I3
(lp194
I429
atp195
s(I3
I88
tp196
(I7
(lp197
I575
atp198
s(I4
I106
tp199
(I10
(lp200
I712
atp201
s(I1
I120
tp202
(I6
(lp203
I533
atp204
s(I2
I102
tp205
(I10
(lp206
I680
atp207
s(I5
I82
tp208
(I3
(lp209
I419
atp210
s(I3
I126
tp211
(I8
(lp212
I635
atp213
s(I4
I112
tp214
(I10
(lp215
I718
atp216
s(I2
I128
tp217
(I8
(lp218
I624
atp219
s(I5
I124
tp220
(I5
(lp221
I473
atp222
s(I0
I130
tp223
(I8
(lp224
I598
atp225
s(I4
I136
tp226
(I9
(lp227
I658
atp228
s(I0
I69
tp229
(I3
(lp230
I389
atp231
s(I2
I71
tp232
(I7
(lp233
I553
atp234
s(I0
I123
tp235
(I5
(lp236
I497
atp237
s(I1
I113
tp238
(I6
(lp239
I540
atp240
s(I3
I103
tp241
(I10
(lp242
I698
atp243
s(I4
I127
tp244
(I9
(lp245
I649
atp246
s(I1
I107
tp247
(I4
(lp248
I436
atp249
s(I5
I101
tp250
(I4
(lp251
I470
atp252
s(I0
I114
tp253
(I5
(lp254
I488
atp255
s(I3
I70
tp256
(I7
(lp257
I593
atp258
s(I2
I120
tp259
(I6
(lp260
I522
atp261
s(I0
I104
tp262
(I4
(lp263
I452
atp264
s(I3
I108
tp265
(I10
(lp266
I693
atp267
s(I4
I102
tp268
(I10
(lp269
I708
atp270
s(I1
I108
tp271
(I4
(lp272
I435
atp273
s(I5
I110
tp274
(I4
(lp275
I461
atp276
s(I3
I114
tp277
(I6
(lp278
I511
atp279
s(I2
I140
tp280
(I9
(lp281
I676
atp282
s(I5
I129
tp283
(I9
(lp284
I644
atp285
s(I0
I61
tp286
(I3
(lp287
I381
atp288
s(I3
I131
tp289
(I8
(lp290
I630
atp291
s(I2
I63
tp292
(I7
(lp293
I545
atp294
s(I0
I83
tp295
(I3
(lp296
I403
atp297
s(I4
I132
tp298
(I9
(lp299
I654
atp300
s(I2
I89
tp301
(I7
(lp302
I571
atp303
s(I0
I73
tp304
(I3
(lp305
I393
atp306
s(I3
I79
tp307
(I7
(lp308
I584
atp309
s(I2
I115
tp310
(I6
(lp311
I517
atp312
s(I0
I111
tp313
(I4
(lp314
I459
atp315
s(I5
I77
tp316
(I3
(lp317
I424
atp318
s(I3
I85
tp319
(I7
(lp320
I578
atp321
s(I4
I109
tp322
(I10
(lp323
I715
atp324
s(I1
I101
tp325
(I4
(lp326
I442
atp327
s(I2
I109
tp328
(I10
(lp329
I687
atp330
s(I1
I128
tp331
(I8
(lp332
I619
atp333
s(I5
I87
tp334
(I3
(lp335
I414
atp336
s(I3
I123
tp337
(I6
(lp338
I502
atp339
s(I2
I135
tp340
(I9
(lp341
I671
atp342
s(I5
I113
tp343
(I5
(lp344
I484
atp345
s(I3
I136
tp346
(I9
(lp347
I665
atp348
s(I4
I131
tp349
(I9
(lp350
I653
atp351
s(I2
I80
tp352
(I7
(lp353
I562
atp354
s(I0
I64
tp355
(I3
(lp356
I384
atp357
s(I2
I74
tp358
(I7
(lp359
I556
atp360
s(I0
I102
tp361
(I4
(lp362
I450
atp363
s(I3
I90
tp364
(I7
(lp365
I573
atp366
s(I1
I126
tp367
(I8
(lp368
I621
atp369
s(I2
I100
tp370
(I10
(lp371
I678
atp372
s(I5
I80
tp373
(I3
(lp374
I421
atp375
s(I4
I114
tp376
(I10
(lp377
I720
atp378
s(I5
I122
tp379
(I5
(lp380
I475
atp381
s(I0
I132
tp382
(I8
(lp383
I600
atp384
s(I4
I138
tp385
(I9
(lp386
I660
atp387
s(I0
I71
tp388
(I3
(lp389
I391
atp390
s(I2
I69
tp391
(I7
(lp392
I551
atp393
s(I0
I125
tp394
(I5
(lp395
I499
atp396
s(I1
I119
tp397
(I6
(lp398
I534
atp399
s(I2
I127
tp400
(I8
(lp401
I623
atp402
s(I5
I89
tp403
(I3
(lp404
I412
atp405
s(I3
I105
tp406
(I10
(lp407
I696
atp408
s(I4
I121
tp409
(I10
(lp410
I727
atp411
s(I1
I105
tp412
(I4
(lp413
I438
atp414
s(I5
I134
tp415
(I9
(lp416
I639
atp417
s(I0
I116
tp418
(I5
(lp419
I490
atp420
s(I3
I72
tp421
(I7
(lp422
I591
atp423
s(I2
I118
tp424
(I6
(lp425
I520
atp426
s(I0
I106
tp427
(I4
(lp428
I454
atp429
s(I3
I110
tp430
(I10
(lp431
I691
atp432
s(I1
I98
tp433
(I4
(lp434
I445
atp435
s(I5
I108
tp436
(I4
(lp437
I463
atp438
s(I3
I116
tp439
(I6
(lp440
I509
atp441
s(I2
I138
tp442
(I9
(lp443
I674
atp444
s(I0
I63
tp445
(I3
(lp446
I383
atp447
s(I5
I118
tp448
(I5
(lp449
I479
atp450
s(I0
I136
tp451
(I8
(lp452
I604
atp453
s(I3
I133
tp454
(I9
(lp455
I668
atp456
s(I2
I61
tp457
(I7
(lp458
I543
atp459
s(I0
I85
tp460
(I3
(lp461
I405
atp462
s(I4
I134
tp463
(I9
(lp464
I656
atp465
s(I2
I87
tp466
(I7
(lp467
I569
atp468
s(I0
I75
tp469
(I3
(lp470
I395
atp471
s(I2
I113
tp472
(I6
(lp473
I515
atp474
s(I5
I75
tp475
(I3
(lp476
I426
atp477
s(I3
I87
tp478
(I7
(lp479
I576
atp480
s(I4
I111
tp481
(I10
(lp482
I717
atp483
s(I1
I123
tp484
(I6
(lp485
I530
atp486
s(I2
I107
tp487
(I10
(lp488
I685
atp489
s(I1
I134
tp490
(I8
(lp491
I613
atp492
s(I5
I85
tp493
(I3
(lp494
I416
atp495
s(I3
I125
tp496
(I6
(lp497
I500
atp498
s(I4
I117
tp499
(I10
(lp500
I723
atp501
s(I2
I133
tp502
(I9
(lp503
I669
atp504
s(I5
I136
tp505
(I9
(lp506
I637
atp507
s(I5
I127
tp508
(I9
(lp509
I646
atp510
s(I3
I138
tp511
(I9
(lp512
I663
atp513
s(I0
I66
tp514
(I3
(lp515
I386
atp516
s(I2
I72
tp517
(I7
(lp518
I554
atp519
s(I0
I120
tp520
(I5
(lp521
I494
atp522
s(I1
I124
tp523
(I6
(lp524
I529
atp525
s(I3
I98
tp526
(I10
(lp527
I703
atp528
s(I4
I124
tp529
(I10
(lp530
I730
atp531
s(I5
I120
tp532
(I5
(lp533
I477
atp534
s(I0
I134
tp535
(I8
(lp536
I602
atp537
s(I0
I89
tp538
(I3
(lp539
I409
atp540
s(I2
I67
tp541
(I7
(lp542
I549
atp543
s(I0
I127
tp544
(I8
(lp545
I595
atp546
s(I1
I117
tp547
(I6
(lp548
I536
atp549
s(I2
I125
tp550
(I6
(lp551
I527
atp552
s(I5
I71
tp553
(I3
(lp554
I430
atp555
s(I3
I107
tp556
(I10
(lp557
I694
atp558
s(I4
I123
tp559
(I10
(lp560
I729
atp561
s(I1
I111
tp562
(I4
(lp563
I432
atp564
s(I1
I138
tp565
(I8
(lp566
I609
atp567
s(I3
I113
tp568
(I6
(lp569
I512
atp570
s(I5
I132
tp571
(I9
(lp572
I641
atp573
s(I0
I80
tp574
(I3
(lp575
I400
atp576
s(I2
I90
tp577
(I7
(lp578
I572
atp579
s(I0
I118
tp580
(I5
(lp581
I492
atp582
s(I3
I74
tp583
(I7
(lp584
I589
atp585
s(I2
I116
tp586
(I6
(lp587
I518
atp588
s(I0
I108
tp589
(I4
(lp590
I456
atp591
s(I3
I80
tp592
(I7
(lp593
I583
atp594
s(I4
I98
tp595
(I10
(lp596
I704
atp597
s(I2
I110
tp598
(I10
(lp599
I688
atp600
s(I1
I131
tp601
(I8
(lp602
I616
atp603
s(I5
I106
tp604
(I4
(lp605
I465
atp606
s(I3
I118
tp607
(I6
(lp608
I507
atp609
s(I2
I136
tp610
(I9
(lp611
I672
atp612
s(I5
I116
tp613
(I5
(lp614
I481
atp615
s(I0
I138
tp616
(I8
(lp617
I606
atp618
s(I3
I135
tp619
(I9
(lp620
I666
atp621
s(I0
I87
tp622
(I3
(lp623
I407
atp624
s(I4
I128
tp625
(I9
(lp626
I650
atp627
s(I2
I85
tp628
(I7
(lp629
I567
atp630
s(I0
I77
tp631
(I3
(lp632
I397
atp633
s(I2
I79
tp634
(I7
(lp635
I561
atp636
s(I0
I99
tp637
(I4
(lp638
I447
atp639
s(I5
I73
tp640
(I3
(lp641
I428
atp642
s(I3
I89
tp643
(I7
(lp644
I574
atp645
s(I4
I105
tp646
(I10
(lp647
I711
atp648
s(I1
I121
tp649
(I6
(lp650
I532
atp651
s(I2
I105
tp652
(I10
(lp653
I683
atp654
s(I1
I132
tp655
(I8
(lp656
I615
atp657
s(I5
I83
tp658
(I3
(lp659
I418
atp660
s(I3
I127
tp661
(I8
(lp662
I634
atp663
s(I4
I119
tp664
(I10
(lp665
I725
atp666
s(I2
I131
tp667
(I8
(lp668
I627
atp669
s(I5
I125
tp670
(I5
(lp671
I472
atp672
s(I0
I129
tp673
(I8
(lp674
I597
atp675
s(I0
I68
tp676
(I3
(lp677
I388
atp678
s(I2
I70
tp679
(I7
(lp680
I552
atp681
s(I0
I122
tp682
(I5
(lp683
I496
atp684
s(I1
I114
tp685
(I6
(lp686
I539
atp687
s(I3
I100
tp688
(I10
(lp689
I701
atp690
s(I4
I126
tp691
(I9
(lp692
I648
atp693
s(I5
I102
tp694
(I4
(lp695
I469
atp696
s(I2
I65
tp697
(I7
(lp698
I547
atp699
s(I0
I113
tp700
(I5
(lp701
I487
atp702
s(I3
I71
tp703
(I7
(lp704
I592
atp705
s(I2
I123
tp706
(I6
(lp707
I525
atp708
s(I3
I109
tp709
(I10
(lp710
I692
atp711
s(I4
I101
tp712
(I10
(lp713
I707
atp714
s(I1
I109
tp715
(I4
(lp716
I434
atp717
s(I1
I136
tp718
(I8
(lp719
I611
atp720
s(I5
I111
tp721
(I4
(lp722
I460
atp723
s(I3
I115
tp724
(I6
(lp725
I510
atp726
s(I5
I130
tp727
(I9
(lp728
I643
atp729
s(I0
I60
tp730
(I3
(lp731
I380
atp732
s(I3
I128
tp733
(I8
(lp734
I633
atp735
s(I2
I62
tp736
(I7
(lp737
I544
atp738
s(I0
I82
tp739
(I3
(lp740
I402
atp741
s(I2
I88
tp742
(I7
(lp743
I570
atp744
s(I0
I72
tp745
(I3
(lp746
I392
atp747
s(I3
I76
tp748
(I7
(lp749
I587
atp750
s(I2
I114
tp751
(I6
(lp752
I516
atp753
s(I0
I110
tp754
(I4
(lp755
I458
atp756
s(I5
I78
tp757
(I3
(lp758
I423
atp759
s(I3
I82
tp760
(I7
(lp761
I581
atp762
s(I4
I108
tp763
(I10
(lp764
I714
atp765
s(I1
I102
tp766
(I4
(lp767
I441
atp768
s(I2
I108
tp769
(I10
(lp770
I686
atp771
s(I1
I129
tp772
(I8
(lp773
I618
atp774
s(I5
I104
tp775
(I4
(lp776
I467
atp777
s(I3
I120
tp778
(I6
(lp779
I505
atp780
s(I2
I134
tp781
(I9
(lp782
I670
atp783
s(I5
I114
tp784
(I5
(lp785
I483
atp786
s(I3
I137
tp787
(I9
(lp788
I664
atp789
s(I4
I130
tp790
(I9
(lp791
I652
atp792
s(I2
I83
tp793
(I7
(lp794
I565
atp795
s(I0
I79
tp796
(I3
(lp797
I399
atp798
s(I2
I77
tp799
(I7
(lp800
I559
atp801
s(I0
I101
tp802
(I4
(lp803
I449
atp804
s(I4
I107
tp805
(I10
(lp806
I713
atp807
s(I1
I127
tp808
(I8
(lp809
I620
atp810
s(I2
I103
tp811
(I10
(lp812
I681
atp813
s(I5
I81
tp814
(I3
(lp815
I420
atp816
s(I4
I113
tp817
(I10
(lp818
I719
atp819
s(I2
I129
tp820
(I8
(lp821
I625
atp822
s(I5
I123
tp823
(I5
(lp824
I474
atp825
s(I0
I131
tp826
(I8
(lp827
I599
atp828
s(I4
I137
tp829
(I9
(lp830
I659
atp831
s(I0
I70
tp832
(I3
(lp833
I390
atp834
s(I2
I68
tp835
(I7
(lp836
I550
atp837
s(I0
I124
tp838
(I5
(lp839
I498
atp840
s(I1
I112
tp841
(I6
(lp842
I541
atp843
s(I2
I126
tp844
(I8
(lp845
I622
atp846
s(I5
I90
tp847
(I3
(lp848
I411
atp849
s(I3
I102
tp850
(I10
(lp851
I699
atp852
s(I4
I120
tp853
(I10
(lp854
I726
atp855
s(I1
I106
tp856
(I4
(lp857
I437
atp858
s(I5
I100
tp859
(I4
(lp860
I471
atp861
s(I5
I135
tp862
(I9
(lp863
I638
atp864
s(I0
I115
tp865
(I5
(lp866
I489
atp867
s(I3
I73
tp868
(I7
(lp869
I590
atp870
s(I2
I121
tp871
(I6
(lp872
I523
atp873
s(I0
I105
tp874
(I4
(lp875
I453
atp876
s(I3
I111
tp877
(I10
(lp878
I690
atp879
s(I4
I103
tp880
(I10
(lp881
I709
atp882
s(I1
I99
tp883
(I4
(lp884
I444
atp885
s(I5
I109
tp886
(I4
(lp887
I462
atp888
s(I3
I117
tp889
(I6
(lp890
I508
atp891
s(I2
I141
tp892
(I9
(lp893
I677
atp894
s(I5
I128
tp895
(I9
(lp896
I645
atp897
s(I0
I62
tp898
(I3
(lp899
I382
atp900
s(I5
I119
tp901
(I5
(lp902
I478
atp903
s(I3
I130
tp904
(I8
(lp905
I631
atp906
s(I2
I60
tp907
(I7
(lp908
I542
atp909
s(I0
I84
tp910
(I3
(lp911
I404
atp912
s(I4
I133
tp913
(I9
(lp914
I655
atp915
s(I2
I86
tp916
(I7
(lp917
I568
atp918
s(I0
I74
tp919
(I3
(lp920
I394
atp921
s(I3
I78
tp922
(I7
(lp923
I585
atp924
s(I2
I112
tp925
(I6
(lp926
I514
atp927
s(I5
I76
tp928
(I3
(lp929
I425
atp930
s(I3
I84
tp931
(I7
(lp932
I579
atp933
s(I4
I110
tp934
(I10
(lp935
I716
atp936
s(I1
I100
tp937
(I4
(lp938
I443
atp939
s(I2
I106
tp940
(I10
(lp941
I684
atp942
s(I1
I135
tp943
(I8
(lp944
I612
atp945
s(I5
I86
tp946
(I3
(lp947
I415
atp948
s(I3
I122
tp949
(I6
(lp950
I503
atp951
s(I4
I116
tp952
(I10
(lp953
I722
atp954
s(I2
I132
tp955
(I8
(lp956
I628
atp957
s(I5
I137
tp958
(I9
(lp959
I636
atp960
s(I5
I112
tp961
(I5
(lp962
I485
atp963
s(I3
I139
tp964
(I9
(lp965
I662
atp966
s(I2
I81
tp967
(I7
(lp968
I563
atp969
s(I0
I65
tp970
(I3
(lp971
I385
atp972
s(I2
I75
tp973
(I7
(lp974
I557
atp975
s(I0
I103
tp976
(I4
(lp977
I451
atp978
s(I1
I125
tp979
(I6
(lp980
I528
atp981
s(I2
I101
tp982
(I10
(lp983
I679
atp984
s(I3
I99
tp985
(I10
(lp986
I702
atp987
s(I4
I115
tp988
(I10
(lp989
I721
atp990
s(I5
I121
tp991
(I5
(lp992
I476
atp993
s(I0
I133
tp994
(I8
(lp995
I601
atp996
s(I4
I139
tp997
(I9
(lp998
I661
atp999
s(I0
I88
tp1000
(I3
(lp1001
I408
atp1002
s(I2
I66
tp1003
(I7
(lp1004
I548
atp1005
s(I0
I126
tp1006
(I8
(lp1007
I594
atp1008
s(I1
I118
tp1009
(I6
(lp1010
I535
atp1011
s(I2
I124
tp1012
(I6
(lp1013
I526
atp1014
s(I5
I88
tp1015
(I3
(lp1016
I413
atp1017
s(I3
I104
tp1018
(I10
(lp1019
I697
atp1020
s(I4
I122
tp1021
(I10
(lp1022
I728
atp1023
s(I1
I104
tp1024
(I4
(lp1025
I439
atp1026
s(I1
I139
tp1027
(I8
(lp1028
I608
atp1029
s(I5
I133
tp1030
(I9
(lp1031
I640
atp1032
s(I0
I117
tp1033
(I5
(lp1034
I491
atp1035
s(I3
I75
tp1036
(I7
(lp1037
I588
atp1038
s(I2
I119
tp1039
(I6
(lp1040
I521
atp1041
s(I0
I107
tp1042
(I4
(lp1043
I455
atp1044
s(I3
I81
tp1045
(I7
(lp1046
I582
atp1047
s(I5
I107
tp1048
(I4
(lp1049
I464
atp1050
s(I3
I119
tp1051
(I6
(lp1052
I506
atp1053
s(I2
I139
tp1054
(I9
(lp1055
I675
atp1056
s(I5
I117
tp1057
(I5
(lp1058
I480
atp1059
s(I0
I137
tp1060
(I8
(lp1061
I605
atp1062
s(I3
I132
tp1063
(I8
(lp1064
I629
atp1065
ssS'_scaf'
p1066
(dp1067
(I0
I86
tp1068
(I0
(lp1069
I244
atp1070
s(I4
I135
tp1071
(I0
(lp1072
I119
atp1073
s(I2
I84
tp1074
(I0
(lp1075
I10
atp1076
s(I0
I76
tp1077
(I0
(lp1078
I254
atp1079
s(I2
I78
tp1080
(I0
(lp1081
I16
atp1082
s(I0
I98
tp1083
(I0
(lp1084
I232
atp1085
s(I5
I74
tp1086
(I0
(lp1087
I275
atp1088
s(I3
I86
tp1089
(I0
(lp1090
I51
atp1091
s(I4
I104
tp1092
(I0
(lp1093
I150
atp1094
s(I1
I122
tp1095
(I2
(lp1096
I340
atp1097
s(I2
I104
tp1098
(I1
(lp1099
I313
atp1100
s(I1
I133
tp1101
(I2
(lp1102
I351
atp1103
s(I5
I84
tp1104
(I0
(lp1105
I285
atp1106
s(I3
I124
tp1107
(I0
(lp1108
I89
atp1109
s(I4
I118
tp1110
(I0
(lp1111
I136
atp1112
s(I2
I130
tp1113
(I2
(lp1114
I371
atp1115
s(I5
I126
tp1116
(I0
(lp1117
I181
atp1118
s(I0
I128
tp1119
(I0
(lp1120
I202
atp1121
s(I3
I141
tp1122
(I0
(lp1123
I106
atp1124
s(I4
I142
tp1125
(I0
(lp1126
I112
atp1127
s(I0
I67
tp1128
(I0
(lp1129
I263
atp1130
s(I2
I73
tp1131
(I0
(lp1132
I21
atp1133
s(I0
I121
tp1134
(I0
(lp1135
I209
atp1136
s(I3
I95
tp1137
(I0
(lp1138
I60
atp1139
s(I1
I115
tp1140
(I1
(lp1141
I333
atp1142
s(I5
I93
tp1143
(I0
(lp1144
I294
atp1145
s(I3
I101
tp1146
(I0
(lp1147
I66
atp1148
s(I4
I125
tp1149
(I0
(lp1150
I129
atp1151
s(I5
I103
tp1152
(I0
(lp1153
I158
atp1154
s(I0
I135
tp1155
(I0
(lp1156
I195
atp1157
s(I0
I90
tp1158
(I0
(lp1159
I240
atp1160
s(I0
I112
tp1161
(I0
(lp1162
I218
atp1163
s(I3
I68
tp1164
(I0
(lp1165
I33
atp1166
s(I1
I116
tp1167
(I1
(lp1168
I334
atp1169
s(I2
I122
tp1170
(I2
(lp1171
I379
atp1172
s(I5
I70
tp1173
(I0
(lp1174
I271
atp1175
s(I3
I106
tp1176
(I0
(lp1177
I71
atp1178
s(I4
I100
tp1179
(I0
(lp1180
I154
atp1181
s(I1
I110
tp1182
(I1
(lp1183
I328
atp1184
s(I1
I137
tp1185
(I2
(lp1186
I355
atp1187
s(I3
I112
tp1188
(I0
(lp1189
I77
atp1190
s(I5
I131
tp1191
(I0
(lp1192
I186
atp1193
s(I3
I129
tp1194
(I0
(lp1195
I94
atp1196
s(I0
I81
tp1197
(I0
(lp1198
I249
atp1199
s(I2
I91
tp1200
(I0
(lp1201
I3
atp1202
s(I0
I119
tp1203
(I0
(lp1204
I211
atp1205
s(I3
I77
tp1206
(I0
(lp1207
I42
atp1208
s(I2
I117
tp1209
(I1
(lp1210
I300
atp1211
s(I0
I109
tp1212
(I0
(lp1213
I221
atp1214
s(I5
I79
tp1215
(I0
(lp1216
I280
atp1217
s(I3
I83
tp1218
(I0
(lp1219
I48
atp1220
s(I1
I103
tp1221
(I1
(lp1222
I321
atp1223
s(I2
I111
tp1224
(I1
(lp1225
I306
atp1226
s(I1
I130
tp1227
(I2
(lp1228
I348
atp1229
s(I5
I105
tp1230
(I0
(lp1231
I160
atp1232
s(I3
I121
tp1233
(I0
(lp1234
I86
atp1235
s(I2
I137
tp1236
(I2
(lp1237
I364
atp1238
s(I5
I115
tp1239
(I0
(lp1240
I170
atp1241
s(I3
I134
tp1242
(I0
(lp1243
I99
atp1244
s(I4
I129
tp1245
(I0
(lp1246
I125
atp1247
s(I2
I82
tp1248
(I0
(lp1249
I12
atp1250
s(I0
I78
tp1251
(I0
(lp1252
I252
atp1253
s(I2
I76
tp1254
(I0
(lp1255
I18
atp1256
s(I0
I100
tp1257
(I0
(lp1258
I230
atp1259
s(I5
I72
tp1260
(I0
(lp1261
I273
atp1262
s(I3
I88
tp1263
(I0
(lp1264
I53
atp1265
s(I4
I106
tp1266
(I0
(lp1267
I148
atp1268
s(I1
I120
tp1269
(I2
(lp1270
I338
atp1271
s(I2
I102
tp1272
(I1
(lp1273
I315
atp1274
s(I5
I82
tp1275
(I0
(lp1276
I283
atp1277
s(I3
I126
tp1278
(I0
(lp1279
I91
atp1280
s(I4
I112
tp1281
(I0
(lp1282
I142
atp1283
s(I2
I128
tp1284
(I2
(lp1285
I373
atp1286
s(I5
I124
tp1287
(I0
(lp1288
I179
atp1289
s(I0
I130
tp1290
(I0
(lp1291
I200
atp1292
s(I3
I143
tp1293
(I0
(lp1294
I108
atp1295
s(I4
I136
tp1296
(I0
(lp1297
I118
atp1298
s(I0
I69
tp1299
(I0
(lp1300
I261
atp1301
s(I2
I71
tp1302
(I0
(lp1303
I23
atp1304
s(I0
I123
tp1305
(I0
(lp1306
I207
atp1307
s(I3
I65
tp1308
(I0
(lp1309
I30
atp1310
s(I1
I113
tp1311
(I1
(lp1312
I331
atp1313
s(I5
I91
tp1314
(I0
(lp1315
I292
atp1316
s(I3
I103
tp1317
(I0
(lp1318
I68
atp1319
s(I4
I127
tp1320
(I0
(lp1321
I127
atp1322
s(I1
I107
tp1323
(I1
(lp1324
I325
atp1325
s(I5
I101
tp1326
(I0
(lp1327
I156
atp1328
s(I0
I92
tp1329
(I0
(lp1330
I238
atp1331
s(I2
I94
tp1332
(I0
(lp1333
I0
atp1334
s(I0
I114
tp1335
(I0
(lp1336
I216
atp1337
s(I3
I70
tp1338
(I0
(lp1339
I35
atp1340
s(I2
I120
tp1341
(I1
(lp1342
I297
atp1343
s(I0
I104
tp1344
(I0
(lp1345
I226
atp1346
s(I5
I68
tp1347
(I0
(lp1348
I269
atp1349
s(I3
I108
tp1350
(I0
(lp1351
I73
atp1352
s(I4
I102
tp1353
(I0
(lp1354
I152
atp1355
s(I1
I108
tp1356
(I1
(lp1357
I326
atp1358
s(I5
I110
tp1359
(I0
(lp1360
I165
atp1361
s(I3
I114
tp1362
(I0
(lp1363
I79
atp1364
s(I2
I140
tp1365
(I2
(lp1366
I361
atp1367
s(I5
I129
tp1368
(I0
(lp1369
I184
atp1370
s(I3
I131
tp1371
(I0
(lp1372
I96
atp1373
s(I0
I83
tp1374
(I0
(lp1375
I247
atp1376
s(I4
I132
tp1377
(I0
(lp1378
I122
atp1379
s(I2
I89
tp1380
(I0
(lp1381
I5
atp1382
s(I0
I73
tp1383
(I0
(lp1384
I257
atp1385
s(I3
I79
tp1386
(I0
(lp1387
I44
atp1388
s(I2
I115
tp1389
(I1
(lp1390
I302
atp1391
s(I0
I111
tp1392
(I0
(lp1393
I219
atp1394
s(I5
I77
tp1395
(I0
(lp1396
I278
atp1397
s(I3
I85
tp1398
(I0
(lp1399
I50
atp1400
s(I4
I109
tp1401
(I0
(lp1402
I145
atp1403
s(I1
I101
tp1404
(I1
(lp1405
I319
atp1406
s(I2
I109
tp1407
(I1
(lp1408
I308
atp1409
s(I1
I128
tp1410
(I2
(lp1411
I346
atp1412
s(I5
I87
tp1413
(I0
(lp1414
I288
atp1415
s(I3
I123
tp1416
(I0
(lp1417
I88
atp1418
s(I2
I135
tp1419
(I2
(lp1420
I366
atp1421
s(I5
I113
tp1422
(I0
(lp1423
I168
atp1424
s(I3
I136
tp1425
(I0
(lp1426
I101
atp1427
s(I4
I131
tp1428
(I0
(lp1429
I123
atp1430
s(I2
I80
tp1431
(I0
(lp1432
I14
atp1433
s(I2
I74
tp1434
(I0
(lp1435
I20
atp1436
s(I0
I102
tp1437
(I0
(lp1438
I228
atp1439
s(I3
I90
tp1440
(I0
(lp1441
I55
atp1442
s(I1
I126
tp1443
(I2
(lp1444
I344
atp1445
s(I2
I100
tp1446
(I1
(lp1447
I317
atp1448
s(I5
I80
tp1449
(I0
(lp1450
I281
atp1451
s(I3
I96
tp1452
(I0
(lp1453
I61
atp1454
s(I4
I114
tp1455
(I0
(lp1456
I140
atp1457
s(I5
I122
tp1458
(I0
(lp1459
I177
atp1460
s(I0
I132
tp1461
(I0
(lp1462
I198
atp1463
s(I4
I138
tp1464
(I0
(lp1465
I116
atp1466
s(I0
I71
tp1467
(I0
(lp1468
I259
atp1469
s(I4
I144
tp1470
(I0
(lp1471
I110
atp1472
s(I2
I69
tp1473
(I0
(lp1474
I25
atp1475
s(I0
I125
tp1476
(I0
(lp1477
I205
atp1478
s(I3
I67
tp1479
(I0
(lp1480
I32
atp1481
s(I1
I119
tp1482
(I2
(lp1483
I337
atp1484
s(I2
I127
tp1485
(I2
(lp1486
I374
atp1487
s(I5
I89
tp1488
(I0
(lp1489
I290
atp1490
s(I3
I105
tp1491
(I0
(lp1492
I70
atp1493
s(I4
I121
tp1494
(I0
(lp1495
I133
atp1496
s(I1
I105
tp1497
(I1
(lp1498
I323
atp1499
s(I5
I134
tp1500
(I0
(lp1501
I189
atp1502
s(I0
I94
tp1503
(I0
(lp1504
I236
atp1505
s(I2
I92
tp1506
(I0
(lp1507
I2
atp1508
s(I0
I116
tp1509
(I0
(lp1510
I214
atp1511
s(I3
I72
tp1512
(I0
(lp1513
I37
atp1514
s(I2
I118
tp1515
(I1
(lp1516
I299
atp1517
s(I0
I106
tp1518
(I0
(lp1519
I224
atp1520
s(I5
I66
tp1521
(I0
(lp1522
I267
atp1523
s(I3
I110
tp1524
(I0
(lp1525
I75
atp1526
s(I1
I141
tp1527
(I2
(lp1528
I359
atp1529
s(I5
I108
tp1530
(I0
(lp1531
I163
atp1532
s(I3
I116
tp1533
(I0
(lp1534
I81
atp1535
s(I2
I138
tp1536
(I2
(lp1537
I363
atp1538
s(I5
I118
tp1539
(I0
(lp1540
I173
atp1541
s(I0
I136
tp1542
(I0
(lp1543
I194
atp1544
s(I3
I133
tp1545
(I0
(lp1546
I98
atp1547
s(I0
I85
tp1548
(I0
(lp1549
I245
atp1550
s(I4
I134
tp1551
(I0
(lp1552
I120
atp1553
s(I2
I87
tp1554
(I0
(lp1555
I7
atp1556
s(I0
I75
tp1557
(I0
(lp1558
I255
atp1559
s(I2
I113
tp1560
(I1
(lp1561
I304
atp1562
s(I0
I97
tp1563
(I0
(lp1564
I233
atp1565
s(I5
I75
tp1566
(I0
(lp1567
I276
atp1568
s(I3
I87
tp1569
(I0
(lp1570
I52
atp1571
s(I4
I111
tp1572
(I0
(lp1573
I143
atp1574
s(I1
I123
tp1575
(I2
(lp1576
I341
atp1577
s(I2
I107
tp1578
(I1
(lp1579
I310
atp1580
s(I1
I134
tp1581
(I2
(lp1582
I352
atp1583
s(I5
I85
tp1584
(I0
(lp1585
I286
atp1586
s(I3
I125
tp1587
(I0
(lp1588
I90
atp1589
s(I4
I117
tp1590
(I0
(lp1591
I137
atp1592
s(I2
I133
tp1593
(I2
(lp1594
I368
atp1595
s(I5
I136
tp1596
(I0
(lp1597
I191
atp1598
s(I5
I127
tp1599
(I0
(lp1600
I182
atp1601
s(I3
I138
tp1602
(I0
(lp1603
I103
atp1604
s(I4
I141
tp1605
(I0
(lp1606
I113
atp1607
s(I3
I144
tp1608
(I0
(lp1609
I109
atp1610
s(I0
I66
tp1611
(I0
(lp1612
I264
atp1613
s(I2
I72
tp1614
(I0
(lp1615
I22
atp1616
s(I0
I120
tp1617
(I0
(lp1618
I210
atp1619
s(I3
I92
tp1620
(I0
(lp1621
I57
atp1622
s(I1
I124
tp1623
(I2
(lp1624
I342
atp1625
s(I5
I94
tp1626
(I0
(lp1627
I295
atp1628
s(I3
I98
tp1629
(I0
(lp1630
I63
atp1631
s(I4
I124
tp1632
(I0
(lp1633
I130
atp1634
s(I5
I120
tp1635
(I0
(lp1636
I175
atp1637
s(I0
I134
tp1638
(I0
(lp1639
I196
atp1640
s(I0
I89
tp1641
(I0
(lp1642
I241
atp1643
s(I2
I67
tp1644
(I0
(lp1645
I27
atp1646
s(I0
I127
tp1647
(I0
(lp1648
I203
atp1649
s(I3
I69
tp1650
(I0
(lp1651
I34
atp1652
s(I1
I117
tp1653
(I1
(lp1654
I335
atp1655
s(I2
I125
tp1656
(I2
(lp1657
I376
atp1658
s(I5
I71
tp1659
(I0
(lp1660
I272
atp1661
s(I3
I107
tp1662
(I0
(lp1663
I72
atp1664
s(I4
I123
tp1665
(I0
(lp1666
I131
atp1667
s(I1
I111
tp1668
(I1
(lp1669
I329
atp1670
s(I1
I138
tp1671
(I2
(lp1672
I356
atp1673
s(I3
I113
tp1674
(I0
(lp1675
I78
atp1676
s(I5
I132
tp1677
(I0
(lp1678
I187
atp1679
s(I0
I80
tp1680
(I0
(lp1681
I250
atp1682
s(I2
I90
tp1683
(I0
(lp1684
I4
atp1685
s(I0
I118
tp1686
(I0
(lp1687
I212
atp1688
s(I3
I74
tp1689
(I0
(lp1690
I39
atp1691
s(I2
I116
tp1692
(I1
(lp1693
I301
atp1694
s(I0
I108
tp1695
(I0
(lp1696
I222
atp1697
s(I3
I80
tp1698
(I0
(lp1699
I45
atp1700
s(I2
I110
tp1701
(I1
(lp1702
I307
atp1703
s(I1
I131
tp1704
(I2
(lp1705
I349
atp1706
s(I5
I106
tp1707
(I0
(lp1708
I161
atp1709
s(I3
I118
tp1710
(I0
(lp1711
I83
atp1712
s(I2
I136
tp1713
(I2
(lp1714
I365
atp1715
s(I5
I116
tp1716
(I0
(lp1717
I171
atp1718
s(I3
I135
tp1719
(I0
(lp1720
I100
atp1721
s(I0
I87
tp1722
(I0
(lp1723
I243
atp1724
s(I4
I128
tp1725
(I0
(lp1726
I126
atp1727
s(I2
I85
tp1728
(I0
(lp1729
I9
atp1730
s(I0
I77
tp1731
(I0
(lp1732
I253
atp1733
s(I2
I79
tp1734
(I0
(lp1735
I15
atp1736
s(I0
I99
tp1737
(I0
(lp1738
I231
atp1739
s(I5
I73
tp1740
(I0
(lp1741
I274
atp1742
s(I3
I89
tp1743
(I0
(lp1744
I54
atp1745
s(I4
I105
tp1746
(I0
(lp1747
I149
atp1748
s(I1
I121
tp1749
(I2
(lp1750
I339
atp1751
s(I2
I105
tp1752
(I1
(lp1753
I312
atp1754
s(I1
I132
tp1755
(I2
(lp1756
I350
atp1757
s(I5
I83
tp1758
(I0
(lp1759
I284
atp1760
s(I3
I127
tp1761
(I0
(lp1762
I92
atp1763
s(I4
I119
tp1764
(I0
(lp1765
I135
atp1766
s(I2
I131
tp1767
(I2
(lp1768
I370
atp1769
s(I5
I125
tp1770
(I0
(lp1771
I180
atp1772
s(I0
I129
tp1773
(I0
(lp1774
I201
atp1775
s(I3
I140
tp1776
(I0
(lp1777
I105
atp1778
s(I4
I143
tp1779
(I0
(lp1780
I111
atp1781
s(I0
I68
tp1782
(I0
(lp1783
I262
atp1784
s(I2
I70
tp1785
(I0
(lp1786
I24
atp1787
s(I0
I122
tp1788
(I0
(lp1789
I208
atp1790
s(I3
I94
tp1791
(I0
(lp1792
I59
atp1793
s(I1
I114
tp1794
(I1
(lp1795
I332
atp1796
s(I5
I92
tp1797
(I0
(lp1798
I293
atp1799
s(I3
I100
tp1800
(I0
(lp1801
I65
atp1802
s(I4
I126
tp1803
(I0
(lp1804
I128
atp1805
s(I5
I102
tp1806
(I0
(lp1807
I157
atp1808
s(I0
I91
tp1809
(I0
(lp1810
I239
atp1811
s(I2
I65
tp1812
(I0
(lp1813
I29
atp1814
s(I0
I113
tp1815
(I0
(lp1816
I217
atp1817
s(I3
I71
tp1818
(I0
(lp1819
I36
atp1820
s(I2
I123
tp1821
(I2
(lp1822
I378
atp1823
s(I5
I69
tp1824
(I0
(lp1825
I270
atp1826
s(I3
I109
tp1827
(I0
(lp1828
I74
atp1829
s(I4
I101
tp1830
(I0
(lp1831
I153
atp1832
s(I1
I109
tp1833
(I1
(lp1834
I327
atp1835
s(I1
I136
tp1836
(I2
(lp1837
I354
atp1838
s(I5
I111
tp1839
(I0
(lp1840
I166
atp1841
s(I3
I115
tp1842
(I0
(lp1843
I80
atp1844
s(I5
I130
tp1845
(I0
(lp1846
I185
atp1847
s(I3
I128
tp1848
(I0
(lp1849
I93
atp1850
s(I0
I82
tp1851
(I0
(lp1852
I248
atp1853
s(I2
I88
tp1854
(I0
(lp1855
I6
atp1856
s(I0
I72
tp1857
(I0
(lp1858
I258
atp1859
s(I3
I76
tp1860
(I0
(lp1861
I41
atp1862
s(I2
I114
tp1863
(I1
(lp1864
I303
atp1865
s(I0
I110
tp1866
(I0
(lp1867
I220
atp1868
s(I5
I78
tp1869
(I0
(lp1870
I279
atp1871
s(I3
I82
tp1872
(I0
(lp1873
I47
atp1874
s(I4
I108
tp1875
(I0
(lp1876
I146
atp1877
s(I1
I102
tp1878
(I1
(lp1879
I320
atp1880
s(I2
I108
tp1881
(I1
(lp1882
I309
atp1883
s(I1
I129
tp1884
(I2
(lp1885
I347
atp1886
s(I5
I104
tp1887
(I0
(lp1888
I159
atp1889
s(I3
I120
tp1890
(I0
(lp1891
I85
atp1892
s(I2
I134
tp1893
(I2
(lp1894
I367
atp1895
s(I5
I114
tp1896
(I0
(lp1897
I169
atp1898
s(I3
I137
tp1899
(I0
(lp1900
I102
atp1901
s(I4
I130
tp1902
(I0
(lp1903
I124
atp1904
s(I2
I83
tp1905
(I0
(lp1906
I11
atp1907
s(I0
I79
tp1908
(I0
(lp1909
I251
atp1910
s(I2
I77
tp1911
(I0
(lp1912
I17
atp1913
s(I0
I101
tp1914
(I0
(lp1915
I229
atp1916
s(I3
I91
tp1917
(I0
(lp1918
I56
atp1919
s(I4
I107
tp1920
(I0
(lp1921
I147
atp1922
s(I1
I127
tp1923
(I2
(lp1924
I345
atp1925
s(I2
I103
tp1926
(I1
(lp1927
I314
atp1928
s(I5
I81
tp1929
(I0
(lp1930
I282
atp1931
s(I3
I97
tp1932
(I0
(lp1933
I62
atp1934
s(I4
I113
tp1935
(I0
(lp1936
I141
atp1937
s(I2
I129
tp1938
(I2
(lp1939
I372
atp1940
s(I5
I123
tp1941
(I0
(lp1942
I178
atp1943
s(I0
I131
tp1944
(I0
(lp1945
I199
atp1946
s(I3
I142
tp1947
(I0
(lp1948
I107
atp1949
s(I4
I137
tp1950
(I0
(lp1951
I117
atp1952
s(I0
I70
tp1953
(I0
(lp1954
I260
atp1955
s(I2
I68
tp1956
(I0
(lp1957
I26
atp1958
s(I0
I124
tp1959
(I0
(lp1960
I206
atp1961
s(I1
I112
tp1962
(I1
(lp1963
I330
atp1964
s(I2
I126
tp1965
(I2
(lp1966
I375
atp1967
s(I5
I90
tp1968
(I0
(lp1969
I291
atp1970
s(I3
I102
tp1971
(I0
(lp1972
I67
atp1973
s(I4
I120
tp1974
(I0
(lp1975
I134
atp1976
s(I1
I106
tp1977
(I1
(lp1978
I324
atp1979
s(I5
I100
tp1980
(I0
(lp1981
I155
atp1982
s(I5
I135
tp1983
(I0
(lp1984
I190
atp1985
s(I0
I93
tp1986
(I0
(lp1987
I237
atp1988
s(I0
I115
tp1989
(I0
(lp1990
I215
atp1991
s(I3
I73
tp1992
(I0
(lp1993
I38
atp1994
s(I2
I121
tp1995
(I1
(lp1996
I296
atp1997
s(I0
I105
tp1998
(I0
(lp1999
I225
atp2000
s(I5
I67
tp2001
(I0
(lp2002
I268
atp2003
s(I3
I111
tp2004
(I0
(lp2005
I76
atp2006
s(I4
I103
tp2007
(I0
(lp2008
I151
atp2009
s(I5
I109
tp2010
(I0
(lp2011
I164
atp2012
s(I3
I117
tp2013
(I0
(lp2014
I82
atp2015
s(I2
I141
tp2016
(I2
(lp2017
I360
atp2018
s(I5
I128
tp2019
(I0
(lp2020
I183
atp2021
s(I5
I119
tp2022
(I0
(lp2023
I174
atp2024
s(I3
I130
tp2025
(I0
(lp2026
I95
atp2027
s(I0
I84
tp2028
(I0
(lp2029
I246
atp2030
s(I4
I133
tp2031
(I0
(lp2032
I121
atp2033
s(I2
I86
tp2034
(I0
(lp2035
I8
atp2036
s(I0
I74
tp2037
(I0
(lp2038
I256
atp2039
s(I3
I78
tp2040
(I0
(lp2041
I43
atp2042
s(I2
I112
tp2043
(I1
(lp2044
I305
atp2045
s(I0
I96
tp2046
(I0
(lp2047
I234
atp2048
s(I5
I76
tp2049
(I0
(lp2050
I277
atp2051
s(I3
I84
tp2052
(I0
(lp2053
I49
atp2054
s(I4
I110
tp2055
(I0
(lp2056
I144
atp2057
s(I1
I100
tp2058
(I1
(lp2059
I318
atp2060
s(I2
I106
tp2061
(I1
(lp2062
I311
atp2063
s(I1
I135
tp2064
(I2
(lp2065
I353
atp2066
s(I5
I86
tp2067
(I0
(lp2068
I287
atp2069
s(I3
I122
tp2070
(I0
(lp2071
I87
atp2072
s(I4
I116
tp2073
(I0
(lp2074
I138
atp2075
s(I2
I132
tp2076
(I2
(lp2077
I369
atp2078
s(I5
I137
tp2079
(I0
(lp2080
I192
atp2081
s(I5
I112
tp2082
(I0
(lp2083
I167
atp2084
s(I3
I139
tp2085
(I0
(lp2086
I104
atp2087
s(I4
I140
tp2088
(I0
(lp2089
I114
atp2090
s(I2
I81
tp2091
(I0
(lp2092
I13
atp2093
s(I0
I65
tp2094
(I0
(lp2095
I265
atp2096
s(I2
I75
tp2097
(I0
(lp2098
I19
atp2099
s(I0
I103
tp2100
(I0
(lp2101
I227
atp2102
s(I3
I93
tp2103
(I0
(lp2104
I58
atp2105
s(I1
I125
tp2106
(I2
(lp2107
I343
atp2108
s(I2
I101
tp2109
(I1
(lp2110
I316
atp2111
s(I3
I99
tp2112
(I0
(lp2113
I64
atp2114
s(I4
I115
tp2115
(I0
(lp2116
I139
atp2117
s(I5
I121
tp2118
(I0
(lp2119
I176
atp2120
s(I0
I133
tp2121
(I0
(lp2122
I197
atp2123
s(I4
I139
tp2124
(I0
(lp2125
I115
atp2126
s(I0
I88
tp2127
(I0
(lp2128
I242
atp2129
s(I2
I66
tp2130
(I0
(lp2131
I28
atp2132
s(I0
I126
tp2133
(I0
(lp2134
I204
atp2135
s(I3
I66
tp2136
(I0
(lp2137
I31
atp2138
s(I1
I118
tp2139
(I2
(lp2140
I336
atp2141
s(I2
I124
tp2142
(I2
(lp2143
I377
atp2144
s(I5
I88
tp2145
(I0
(lp2146
I289
atp2147
s(I3
I104
tp2148
(I0
(lp2149
I69
atp2150
s(I4
I122
tp2151
(I0
(lp2152
I132
atp2153
s(I1
I104
tp2154
(I1
(lp2155
I322
atp2156
s(I1
I139
tp2157
(I2
(lp2158
I357
atp2159
s(I5
I133
tp2160
(I0
(lp2161
I188
atp2162
s(I0
I95
tp2163
(I0
(lp2164
I235
atp2165
s(I2
I93
tp2166
(I0
(lp2167
I1
atp2168
s(I0
I117
tp2169
(I0
(lp2170
I213
atp2171
s(I3
I75
tp2172
(I0
(lp2173
I40
atp2174
s(I2
I119
tp2175
(I1
(lp2176
I298
atp2177
s(I0
I107
tp2178
(I0
(lp2179
I223
atp2180
s(I5
I65
tp2181
(I0
(lp2182
I266
atp2183
s(I3
I81
tp2184
(I0
(lp2185
I46
atp2186
s(I1
I140
tp2187
(I2
(lp2188
I358
atp2189
s(I5
I107
tp2190
(I0
(lp2191
I162
atp2192
s(I3
I119
tp2193
(I0
(lp2194
I84
atp2195
s(I2
I139
tp2196
(I2
(lp2197
I362
atp2198
s(I5
I117
tp2199
(I0
(lp2200
I172
atp2201
s(I0
I137
tp2202
(I0
(lp2203
I193
atp2204
s(I3
I132
tp2205
(I0
(lp2206
I97
atp2207
ssb(dp2208
I0
(I15
I13
tp2209
sI1
(I14
I13
tp2210
sI2
(I14
I14
tp2211
sI3
(I14
I15
tp2212
sI4
(I15
I15
tp2213
sI5
(I15
I14
tp2214
stp2215
.