(ccopy_reg
_reconstructor
p0
(corigami_utils
vhelix_vbase_to_nucleotide
p1
c__builtin__
object
p2
Ntp3
Rp4
(dp5
S'strand_count'
p6
I0
sS'nuc_count'
p7
I0
sS'_stap'
p8
(dp9
(I1
I34
tp10
(I5
(lp11
I352
atp12
s(I5
I31
tp13
(I4
(lp14
I299
atp15
s(I4
I41
tp16
(I8
(lp17
I496
atp18
s(I3
I35
tp19
(I5
(lp20
I323
atp21
s(I2
I41
tp22
(I5
(lp23
I344
atp24
s(I0
I20
tp25
(I3
(lp26
I274
atp27
s(I5
I44
tp28
(I7
(lp29
I410
atp30
s(I4
I36
tp31
(I8
(lp32
I491
atp33
s(I3
I52
tp34
(I7
(lp35
I430
atp36
s(I1
I17
tp37
(I3
(lp38
I264
atp39
s(I4
I55
tp40
(I7
(lp41
I426
atp42
s(I2
I22
tp43
(I8
(lp44
I449
atp45
s(I3
I24
tp46
(I8
(lp47
I458
atp48
s(I2
I48
tp49
(I6
(lp50
I393
atp51
s(I0
I32
tp52
(I4
(lp53
I307
atp54
s(I4
I19
tp55
(I8
(lp56
I474
atp57
s(I3
I45
tp58
(I6
(lp59
I397
atp60
s(I1
I45
tp61
(I6
(lp62
I383
atp63
s(I5
I18
tp64
(I3
(lp65
I291
atp66
s(I4
I46
tp67
(I7
(lp68
I417
atp69
s(I2
I42
tp70
(I6
(lp71
I387
atp72
s(I0
I17
tp73
(I3
(lp74
I271
atp75
s(I5
I47
tp76
(I7
(lp77
I407
atp78
s(I3
I51
tp79
(I7
(lp80
I431
atp81
s(I1
I28
tp82
(I5
(lp83
I358
atp84
s(I4
I52
tp85
(I7
(lp86
I423
atp87
s(I2
I27
tp88
(I8
(lp89
I454
atp90
s(I0
I55
tp91
(I6
(lp92
I372
atp93
s(I1
I54
tp94
(I6
(lp95
I374
atp96
s(I3
I23
tp97
(I8
(lp98
I459
atp99
s(I2
I53
tp100
(I7
(lp101
I438
atp102
s(I0
I45
tp103
(I6
(lp104
I362
atp105
s(I5
I24
tp106
(I3
(lp107
I285
atp108
s(I4
I16
tp109
(I8
(lp110
I471
atp111
s(I3
I40
tp112
(I5
(lp113
I318
atp114
s(I2
I32
tp115
(I5
(lp116
I335
atp117
s(I1
I40
tp118
(I5
(lp119
I346
atp120
s(I5
I21
tp121
(I3
(lp122
I288
atp123
s(I4
I35
tp124
(I8
(lp125
I490
atp126
s(I2
I47
tp127
(I6
(lp128
I392
atp129
s(I0
I30
tp130
(I4
(lp131
I305
atp132
s(I5
I34
tp133
(I4
(lp134
I296
atp135
s(I2
I17
tp136
(I8
(lp137
I444
atp138
s(I1
I31
tp139
(I5
(lp140
I355
atp141
s(I2
I28
tp142
(I5
(lp143
I331
atp144
s(I0
I52
tp145
(I6
(lp146
I369
atp147
s(I4
I15
tp148
(I8
(lp149
I470
atp150
s(I1
I49
tp151
(I6
(lp152
I379
atp153
s(I0
I39
tp154
(I4
(lp155
I314
atp156
s(I4
I26
tp157
(I8
(lp158
I481
atp159
s(I3
I18
tp160
(I8
(lp161
I464
atp162
s(I2
I54
tp163
(I7
(lp164
I439
atp165
s(I1
I38
tp166
(I5
(lp167
I348
atp168
s(I0
I42
tp169
(I6
(lp170
I359
atp171
s(I5
I27
tp172
(I3
(lp173
I282
atp174
s(I4
I21
tp175
(I8
(lp176
I476
atp177
s(I3
I39
tp178
(I5
(lp179
I319
atp180
s(I2
I37
tp181
(I5
(lp182
I340
atp183
s(I1
I43
tp184
(I6
(lp185
I385
atp186
s(I5
I40
tp187
(I8
(lp188
I498
atp189
s(I4
I32
tp190
(I8
(lp191
I487
atp192
s(I1
I21
tp193
(I3
(lp194
I260
atp195
s(I0
I27
tp196
(I3
(lp197
I281
atp198
s(I5
I37
tp199
(I8
(lp200
I501
atp201
s(I4
I51
tp202
(I7
(lp203
I422
atp204
s(I2
I18
tp205
(I8
(lp206
I445
atp207
s(I1
I26
tp208
(I3
(lp209
I255
atp210
s(I0
I14
tp211
(I3
(lp212
I268
atp213
s(I5
I50
tp214
(I7
(lp215
I404
atp216
s(I1
I15
tp217
(I3
(lp218
I266
atp219
s(I0
I49
tp220
(I6
(lp221
I366
atp222
s(I3
I28
tp223
(I5
(lp224
I330
atp225
s(I0
I36
tp226
(I4
(lp227
I311
atp228
s(I4
I31
tp229
(I8
(lp230
I486
atp231
s(I3
I17
tp232
(I8
(lp233
I465
atp234
s(I1
I33
tp235
(I5
(lp236
I353
atp237
s(I5
I30
tp238
(I4
(lp239
I300
atp240
s(I4
I42
tp241
(I7
(lp242
I413
atp243
s(I3
I34
tp244
(I5
(lp245
I324
atp246
s(I2
I38
tp247
(I5
(lp248
I341
atp249
s(I0
I21
tp250
(I3
(lp251
I275
atp252
s(I5
I43
tp253
(I7
(lp254
I411
atp255
s(I4
I37
tp256
(I8
(lp257
I492
atp258
s(I3
I55
tp259
(I7
(lp260
I427
atp261
s(I1
I16
tp262
(I3
(lp263
I265
atp264
s(I0
I24
tp265
(I3
(lp266
I278
atp267
s(I4
I48
tp268
(I7
(lp269
I419
atp270
s(I2
I23
tp271
(I8
(lp272
I450
atp273
s(I5
I53
tp274
(I7
(lp275
I401
atp276
s(I3
I27
tp277
(I8
(lp278
I455
atp279
s(I2
I49
tp280
(I7
(lp281
I434
atp282
s(I0
I33
tp283
(I4
(lp284
I308
atp285
s(I4
I28
tp286
(I8
(lp287
I483
atp288
s(I3
I44
tp289
(I6
(lp290
I398
atp291
s(I1
I44
tp292
(I6
(lp293
I384
atp294
s(I5
I17
tp295
(I3
(lp296
I292
atp297
s(I4
I47
tp298
(I7
(lp299
I418
atp300
s(I3
I33
tp301
(I5
(lp302
I325
atp303
s(I2
I43
tp304
(I6
(lp305
I388
atp306
s(I0
I18
tp307
(I3
(lp308
I272
atp309
s(I5
I46
tp310
(I7
(lp311
I408
atp312
s(I3
I50
tp313
(I7
(lp314
I432
atp315
s(I1
I19
tp316
(I3
(lp317
I262
atp318
s(I4
I53
tp319
(I7
(lp320
I424
atp321
s(I2
I24
tp322
(I8
(lp323
I451
atp324
s(I1
I53
tp325
(I6
(lp326
I375
atp327
s(I3
I22
tp328
(I8
(lp329
I460
atp330
s(I2
I50
tp331
(I7
(lp332
I435
atp333
s(I0
I46
tp334
(I6
(lp335
I363
atp336
s(I4
I17
tp337
(I8
(lp338
I472
atp339
s(I3
I43
tp340
(I6
(lp341
I399
atp342
s(I2
I33
tp343
(I5
(lp344
I336
atp345
s(I1
I47
tp346
(I6
(lp347
I381
atp348
s(I5
I20
tp349
(I3
(lp350
I289
atp351
s(I4
I44
tp352
(I7
(lp353
I415
atp354
s(I2
I44
tp355
(I6
(lp356
I389
atp357
s(I0
I31
tp358
(I4
(lp359
I306
atp360
s(I5
I33
tp361
(I4
(lp362
I297
atp363
s(I3
I49
tp364
(I7
(lp365
I433
atp366
s(I1
I30
tp367
(I5
(lp368
I356
atp369
s(I3
I15
tp370
(I8
(lp371
I467
atp372
s(I2
I29
tp373
(I5
(lp374
I332
atp375
s(I0
I53
tp376
(I6
(lp377
I370
atp378
s(I1
I48
tp379
(I6
(lp380
I380
atp381
s(I4
I27
tp382
(I8
(lp383
I482
atp384
s(I3
I21
tp385
(I8
(lp386
I461
atp387
s(I2
I55
tp388
(I7
(lp389
I440
atp390
s(I1
I37
tp391
(I5
(lp392
I349
atp393
s(I0
I43
tp394
(I6
(lp395
I360
atp396
s(I5
I26
tp397
(I3
(lp398
I283
atp399
s(I4
I22
tp400
(I8
(lp401
I477
atp402
s(I3
I38
tp403
(I5
(lp404
I320
atp405
s(I2
I34
tp406
(I5
(lp407
I337
atp408
s(I1
I42
tp409
(I6
(lp410
I386
atp411
s(I5
I23
tp412
(I3
(lp413
I286
atp414
s(I4
I33
tp415
(I8
(lp416
I488
atp417
s(I1
I20
tp418
(I3
(lp419
I261
atp420
s(I0
I28
tp421
(I4
(lp422
I303
atp423
s(I5
I36
tp424
(I4
(lp425
I294
atp426
s(I2
I19
tp427
(I8
(lp428
I446
atp429
s(I1
I25
tp430
(I3
(lp431
I256
atp432
s(I0
I15
tp433
(I3
(lp434
I269
atp435
s(I5
I49
tp436
(I7
(lp437
I405
atp438
s(I2
I30
tp439
(I5
(lp440
I333
atp441
s(I1
I14
tp442
(I3
(lp443
I267
atp444
s(I0
I50
tp445
(I6
(lp446
I367
atp447
s(I3
I31
tp448
(I5
(lp449
I327
atp450
s(I1
I51
tp451
(I6
(lp452
I377
atp453
s(I0
I37
tp454
(I4
(lp455
I312
atp456
s(I4
I24
tp457
(I8
(lp458
I479
atp459
s(I3
I16
tp460
(I8
(lp461
I466
atp462
s(I2
I56
tp463
(I7
(lp464
I441
atp465
s(I1
I32
tp466
(I5
(lp467
I354
atp468
s(I0
I40
tp469
(I4
(lp470
I315
atp471
s(I5
I29
tp472
(I4
(lp473
I301
atp474
s(I4
I43
tp475
(I7
(lp476
I414
atp477
s(I3
I37
tp478
(I5
(lp479
I321
atp480
s(I2
I39
tp481
(I5
(lp482
I342
atp483
s(I0
I22
tp484
(I3
(lp485
I276
atp486
s(I5
I42
tp487
(I7
(lp488
I412
atp489
s(I4
I38
tp490
(I8
(lp491
I493
atp492
s(I3
I54
tp493
(I7
(lp494
I428
atp495
s(I1
I23
tp496
(I3
(lp497
I258
atp498
s(I0
I25
tp499
(I3
(lp500
I279
atp501
s(I5
I39
tp502
(I8
(lp503
I499
atp504
s(I4
I49
tp505
(I7
(lp506
I420
atp507
s(I2
I20
tp508
(I8
(lp509
I447
atp510
s(I5
I52
tp511
(I7
(lp512
I402
atp513
s(I3
I26
tp514
(I8
(lp515
I456
atp516
s(I0
I34
tp517
(I4
(lp518
I309
atp519
s(I4
I29
tp520
(I8
(lp521
I484
atp522
s(I3
I47
tp523
(I6
(lp524
I395
atp525
s(I1
I35
tp526
(I5
(lp527
I351
atp528
s(I5
I16
tp529
(I3
(lp530
I293
atp531
s(I4
I40
tp532
(I8
(lp533
I495
atp534
s(I3
I32
tp535
(I5
(lp536
I326
atp537
s(I2
I40
tp538
(I5
(lp539
I343
atp540
s(I0
I19
tp541
(I3
(lp542
I273
atp543
s(I5
I45
tp544
(I7
(lp545
I409
atp546
s(I3
I53
tp547
(I7
(lp548
I429
atp549
s(I1
I18
tp550
(I3
(lp551
I263
atp552
s(I4
I54
tp553
(I7
(lp554
I425
atp555
s(I2
I25
tp556
(I8
(lp557
I452
atp558
s(I1
I52
tp559
(I6
(lp560
I376
atp561
s(I3
I25
tp562
(I8
(lp563
I457
atp564
s(I2
I51
tp565
(I7
(lp566
I436
atp567
s(I0
I47
tp568
(I6
(lp569
I364
atp570
s(I4
I18
tp571
(I8
(lp572
I473
atp573
s(I3
I42
tp574
(I6
(lp575
I400
atp576
s(I1
I46
tp577
(I6
(lp578
I382
atp579
s(I5
I19
tp580
(I3
(lp581
I290
atp582
s(I4
I45
tp583
(I7
(lp584
I416
atp585
s(I2
I45
tp586
(I6
(lp587
I390
atp588
s(I0
I16
tp589
(I3
(lp590
I270
atp591
s(I5
I32
tp592
(I4
(lp593
I298
atp594
s(I3
I48
tp595
(I6
(lp596
I394
atp597
s(I1
I29
tp598
(I5
(lp599
I357
atp600
s(I3
I14
tp601
(I8
(lp602
I468
atp603
s(I2
I26
tp604
(I8
(lp605
I453
atp606
s(I0
I54
tp607
(I6
(lp608
I371
atp609
s(I1
I55
tp610
(I6
(lp611
I373
atp612
s(I3
I20
tp613
(I8
(lp614
I462
atp615
s(I2
I52
tp616
(I7
(lp617
I437
atp618
s(I1
I36
tp619
(I5
(lp620
I350
atp621
s(I0
I44
tp622
(I6
(lp623
I361
atp624
s(I5
I25
tp625
(I3
(lp626
I284
atp627
s(I4
I23
tp628
(I8
(lp629
I478
atp630
s(I3
I41
tp631
(I5
(lp632
I317
atp633
s(I2
I35
tp634
(I5
(lp635
I338
atp636
s(I1
I41
tp637
(I5
(lp638
I345
atp639
s(I5
I22
tp640
(I3
(lp641
I287
atp642
s(I4
I34
tp643
(I8
(lp644
I489
atp645
s(I2
I46
tp646
(I6
(lp647
I391
atp648
s(I0
I29
tp649
(I4
(lp650
I304
atp651
s(I5
I35
tp652
(I4
(lp653
I295
atp654
s(I2
I16
tp655
(I8
(lp656
I443
atp657
s(I1
I24
tp658
(I3
(lp659
I257
atp660
s(I5
I48
tp661
(I7
(lp662
I406
atp663
s(I2
I31
tp664
(I5
(lp665
I334
atp666
s(I0
I51
tp667
(I6
(lp668
I368
atp669
s(I4
I14
tp670
(I8
(lp671
I469
atp672
s(I3
I30
tp673
(I5
(lp674
I328
atp675
s(I1
I50
tp676
(I6
(lp677
I378
atp678
s(I0
I38
tp679
(I4
(lp680
I313
atp681
s(I4
I25
tp682
(I8
(lp683
I480
atp684
s(I3
I19
tp685
(I8
(lp686
I463
atp687
s(I2
I57
tp688
(I7
(lp689
I442
atp690
s(I1
I39
tp691
(I5
(lp692
I347
atp693
s(I0
I41
tp694
(I4
(lp695
I316
atp696
s(I5
I28
tp697
(I4
(lp698
I302
atp699
s(I4
I20
tp700
(I8
(lp701
I475
atp702
s(I3
I36
tp703
(I5
(lp704
I322
atp705
s(I2
I36
tp706
(I5
(lp707
I339
atp708
s(I0
I23
tp709
(I3
(lp710
I277
atp711
s(I5
I41
tp712
(I8
(lp713
I497
atp714
s(I4
I39
tp715
(I8
(lp716
I494
atp717
s(I1
I22
tp718
(I3
(lp719
I259
atp720
s(I0
I26
tp721
(I3
(lp722
I280
atp723
s(I5
I38
tp724
(I8
(lp725
I500
atp726
s(I4
I50
tp727
(I7
(lp728
I421
atp729
s(I2
I21
tp730
(I8
(lp731
I448
atp732
s(I1
I27
tp733
(I3
(lp734
I254
atp735
s(I5
I51
tp736
(I7
(lp737
I403
atp738
s(I0
I48
tp739
(I6
(lp740
I365
atp741
s(I3
I29
tp742
(I5
(lp743
I329
atp744
s(I0
I35
tp745
(I4
(lp746
I310
atp747
s(I4
I30
tp748
(I8
(lp749
I485
atp750
s(I3
I46
tp751
(I6
(lp752
I396
atp753
ssS'_scaf'
p754
(dp755
(I1
I34
tp756
(I2
(lp757
I210
atp758
s(I5
I31
tp759
(I0
(lp760
I107
atp761
s(I4
I41
tp762
(I0
(lp763
I66
atp764
s(I3
I35
tp765
(I0
(lp766
I21
atp767
s(I2
I41
tp768
(I2
(lp769
I250
atp770
s(I0
I20
tp771
(I0
(lp772
I163
atp773
s(I5
I44
tp774
(I0
(lp775
I120
atp776
s(I4
I36
tp777
(I0
(lp778
I71
atp779
s(I3
I52
tp780
(I0
(lp781
I38
atp782
s(I1
I17
tp783
(I1
(lp784
I193
atp785
s(I4
I55
tp786
(I0
(lp787
I52
atp788
s(I2
I22
tp789
(I1
(lp790
I185
atp791
s(I3
I24
tp792
(I0
(lp793
I10
atp794
s(I2
I48
tp795
(I2
(lp796
I243
atp797
s(I1
I56
tp798
(I2
(lp799
I232
atp800
s(I0
I32
tp801
(I0
(lp802
I151
atp803
s(I4
I19
tp804
(I0
(lp805
I88
atp806
s(I3
I45
tp807
(I0
(lp808
I31
atp809
s(I1
I45
tp810
(I2
(lp811
I221
atp812
s(I5
I18
tp813
(I0
(lp814
I94
atp815
s(I4
I46
tp816
(I0
(lp817
I61
atp818
s(I2
I42
tp819
(I2
(lp820
I249
atp821
s(I0
I17
tp822
(I0
(lp823
I166
atp824
s(I5
I47
tp825
(I0
(lp826
I123
atp827
s(I4
I57
tp828
(I0
(lp829
I50
atp830
s(I3
I51
tp831
(I0
(lp832
I37
atp833
s(I1
I28
tp834
(I1
(lp835
I204
atp836
s(I4
I52
tp837
(I0
(lp838
I55
atp839
s(I2
I27
tp840
(I1
(lp841
I180
atp842
s(I1
I54
tp843
(I2
(lp844
I230
atp845
s(I3
I23
tp846
(I0
(lp847
I9
atp848
s(I2
I53
tp849
(I2
(lp850
I238
atp851
s(I0
I45
tp852
(I0
(lp853
I138
atp854
s(I5
I24
tp855
(I0
(lp856
I100
atp857
s(I4
I16
tp858
(I0
(lp859
I91
atp860
s(I3
I40
tp861
(I0
(lp862
I26
atp863
s(I2
I32
tp864
(I1
(lp865
I175
atp866
s(I1
I40
tp867
(I2
(lp868
I216
atp869
s(I5
I21
tp870
(I0
(lp871
I97
atp872
s(I4
I35
tp873
(I0
(lp874
I72
atp875
s(I2
I47
tp876
(I2
(lp877
I244
atp878
s(I0
I30
tp879
(I0
(lp880
I153
atp881
s(I5
I34
tp882
(I0
(lp883
I110
atp884
s(I2
I17
tp885
(I1
(lp886
I190
atp887
s(I1
I31
tp888
(I1
(lp889
I207
atp890
s(I2
I28
tp891
(I1
(lp892
I179
atp893
s(I0
I52
tp894
(I0
(lp895
I131
atp896
s(I1
I49
tp897
(I2
(lp898
I225
atp899
s(I0
I39
tp900
(I0
(lp901
I144
atp902
s(I4
I26
tp903
(I0
(lp904
I81
atp905
s(I3
I18
tp906
(I0
(lp907
I4
atp908
s(I2
I54
tp909
(I2
(lp910
I237
atp911
s(I1
I38
tp912
(I2
(lp913
I214
atp914
s(I0
I42
tp915
(I0
(lp916
I141
atp917
s(I5
I27
tp918
(I0
(lp919
I103
atp920
s(I4
I21
tp921
(I0
(lp922
I86
atp923
s(I3
I39
tp924
(I0
(lp925
I25
atp926
s(I2
I37
tp927
(I1
(lp928
I170
atp929
s(I1
I43
tp930
(I2
(lp931
I219
atp932
s(I5
I40
tp933
(I0
(lp934
I116
atp935
s(I4
I32
tp936
(I0
(lp937
I75
atp938
s(I3
I56
tp939
(I0
(lp940
I42
atp941
s(I1
I21
tp942
(I1
(lp943
I197
atp944
s(I0
I27
tp945
(I0
(lp946
I156
atp947
s(I5
I37
tp948
(I0
(lp949
I113
atp950
s(I4
I51
tp951
(I0
(lp952
I56
atp953
s(I2
I18
tp954
(I1
(lp955
I189
atp956
s(I1
I26
tp957
(I1
(lp958
I202
atp959
s(I0
I14
tp960
(I0
(lp961
I169
atp962
s(I5
I50
tp963
(I0
(lp964
I126
atp965
s(I0
I49
tp966
(I0
(lp967
I134
atp968
s(I3
I28
tp969
(I0
(lp970
I14
atp971
s(I0
I36
tp972
(I0
(lp973
I147
atp974
s(I4
I31
tp975
(I0
(lp976
I76
atp977
s(I3
I17
tp978
(I0
(lp979
I3
atp980
s(I1
I33
tp981
(I1
(lp982
I209
atp983
s(I5
I30
tp984
(I0
(lp985
I106
atp986
s(I4
I42
tp987
(I0
(lp988
I65
atp989
s(I3
I34
tp990
(I0
(lp991
I20
atp992
s(I2
I38
tp993
(I2
(lp994
I253
atp995
s(I0
I21
tp996
(I0
(lp997
I162
atp998
s(I5
I43
tp999
(I0
(lp1000
I119
atp1001
s(I4
I37
tp1002
(I0
(lp1003
I70
atp1004
s(I3
I55
tp1005
(I0
(lp1006
I41
atp1007
s(I1
I16
tp1008
(I1
(lp1009
I192
atp1010
s(I0
I24
tp1011
(I0
(lp1012
I159
atp1013
s(I4
I48
tp1014
(I0
(lp1015
I59
atp1016
s(I2
I23
tp1017
(I1
(lp1018
I184
atp1019
s(I5
I53
tp1020
(I0
(lp1021
I129
atp1022
s(I3
I27
tp1023
(I0
(lp1024
I13
atp1025
s(I2
I49
tp1026
(I2
(lp1027
I242
atp1028
s(I0
I33
tp1029
(I0
(lp1030
I150
atp1031
s(I4
I28
tp1032
(I0
(lp1033
I79
atp1034
s(I3
I44
tp1035
(I0
(lp1036
I30
atp1037
s(I1
I44
tp1038
(I2
(lp1039
I220
atp1040
s(I5
I17
tp1041
(I0
(lp1042
I93
atp1043
s(I4
I47
tp1044
(I0
(lp1045
I60
atp1046
s(I3
I33
tp1047
(I0
(lp1048
I19
atp1049
s(I2
I43
tp1050
(I2
(lp1051
I248
atp1052
s(I0
I18
tp1053
(I0
(lp1054
I165
atp1055
s(I5
I46
tp1056
(I0
(lp1057
I122
atp1058
s(I4
I58
tp1059
(I0
(lp1060
I49
atp1061
s(I3
I50
tp1062
(I0
(lp1063
I36
atp1064
s(I1
I19
tp1065
(I1
(lp1066
I195
atp1067
s(I4
I53
tp1068
(I0
(lp1069
I54
atp1070
s(I2
I24
tp1071
(I1
(lp1072
I183
atp1073
s(I1
I53
tp1074
(I2
(lp1075
I229
atp1076
s(I3
I22
tp1077
(I0
(lp1078
I8
atp1079
s(I2
I50
tp1080
(I2
(lp1081
I241
atp1082
s(I0
I46
tp1083
(I0
(lp1084
I137
atp1085
s(I4
I17
tp1086
(I0
(lp1087
I90
atp1088
s(I3
I43
tp1089
(I0
(lp1090
I29
atp1091
s(I2
I33
tp1092
(I1
(lp1093
I174
atp1094
s(I1
I47
tp1095
(I2
(lp1096
I223
atp1097
s(I5
I20
tp1098
(I0
(lp1099
I96
atp1100
s(I4
I44
tp1101
(I0
(lp1102
I63
atp1103
s(I3
I60
tp1104
(I0
(lp1105
I46
atp1106
s(I2
I44
tp1107
(I2
(lp1108
I247
atp1109
s(I0
I31
tp1110
(I0
(lp1111
I152
atp1112
s(I5
I33
tp1113
(I0
(lp1114
I109
atp1115
s(I3
I49
tp1116
(I0
(lp1117
I35
atp1118
s(I1
I30
tp1119
(I1
(lp1120
I206
atp1121
s(I3
I15
tp1122
(I0
(lp1123
I1
atp1124
s(I2
I29
tp1125
(I1
(lp1126
I178
atp1127
s(I0
I53
tp1128
(I0
(lp1129
I130
atp1130
s(I1
I48
tp1131
(I2
(lp1132
I224
atp1133
s(I4
I27
tp1134
(I0
(lp1135
I80
atp1136
s(I3
I21
tp1137
(I0
(lp1138
I7
atp1139
s(I2
I55
tp1140
(I2
(lp1141
I236
atp1142
s(I1
I37
tp1143
(I2
(lp1144
I213
atp1145
s(I0
I43
tp1146
(I0
(lp1147
I140
atp1148
s(I5
I26
tp1149
(I0
(lp1150
I102
atp1151
s(I4
I22
tp1152
(I0
(lp1153
I85
atp1154
s(I3
I38
tp1155
(I0
(lp1156
I24
atp1157
s(I2
I34
tp1158
(I1
(lp1159
I173
atp1160
s(I1
I42
tp1161
(I2
(lp1162
I218
atp1163
s(I5
I23
tp1164
(I0
(lp1165
I99
atp1166
s(I4
I33
tp1167
(I0
(lp1168
I74
atp1169
s(I3
I59
tp1170
(I0
(lp1171
I45
atp1172
s(I1
I20
tp1173
(I1
(lp1174
I196
atp1175
s(I0
I28
tp1176
(I0
(lp1177
I155
atp1178
s(I5
I36
tp1179
(I0
(lp1180
I112
atp1181
s(I4
I60
tp1182
(I0
(lp1183
I47
atp1184
s(I2
I19
tp1185
(I1
(lp1186
I188
atp1187
s(I1
I25
tp1188
(I1
(lp1189
I201
atp1190
s(I0
I15
tp1191
(I0
(lp1192
I168
atp1193
s(I5
I49
tp1194
(I0
(lp1195
I125
atp1196
s(I2
I30
tp1197
(I1
(lp1198
I177
atp1199
s(I0
I50
tp1200
(I0
(lp1201
I133
atp1202
s(I3
I31
tp1203
(I0
(lp1204
I17
atp1205
s(I1
I51
tp1206
(I2
(lp1207
I227
atp1208
s(I0
I37
tp1209
(I0
(lp1210
I146
atp1211
s(I4
I24
tp1212
(I0
(lp1213
I83
atp1214
s(I3
I16
tp1215
(I0
(lp1216
I2
atp1217
s(I2
I56
tp1218
(I2
(lp1219
I235
atp1220
s(I1
I32
tp1221
(I1
(lp1222
I208
atp1223
s(I0
I40
tp1224
(I0
(lp1225
I143
atp1226
s(I5
I29
tp1227
(I0
(lp1228
I105
atp1229
s(I4
I43
tp1230
(I0
(lp1231
I64
atp1232
s(I3
I37
tp1233
(I0
(lp1234
I23
atp1235
s(I2
I39
tp1236
(I2
(lp1237
I252
atp1238
s(I0
I22
tp1239
(I0
(lp1240
I161
atp1241
s(I5
I42
tp1242
(I0
(lp1243
I118
atp1244
s(I4
I38
tp1245
(I0
(lp1246
I69
atp1247
s(I3
I54
tp1248
(I0
(lp1249
I40
atp1250
s(I1
I23
tp1251
(I1
(lp1252
I199
atp1253
s(I0
I25
tp1254
(I0
(lp1255
I158
atp1256
s(I5
I39
tp1257
(I0
(lp1258
I115
atp1259
s(I4
I49
tp1260
(I0
(lp1261
I58
atp1262
s(I2
I20
tp1263
(I1
(lp1264
I187
atp1265
s(I5
I52
tp1266
(I0
(lp1267
I128
atp1268
s(I3
I26
tp1269
(I0
(lp1270
I12
atp1271
s(I0
I34
tp1272
(I0
(lp1273
I149
atp1274
s(I4
I29
tp1275
(I0
(lp1276
I78
atp1277
s(I3
I47
tp1278
(I0
(lp1279
I33
atp1280
s(I1
I35
tp1281
(I2
(lp1282
I211
atp1283
s(I5
I16
tp1284
(I0
(lp1285
I92
atp1286
s(I4
I40
tp1287
(I0
(lp1288
I67
atp1289
s(I3
I32
tp1290
(I0
(lp1291
I18
atp1292
s(I2
I40
tp1293
(I2
(lp1294
I251
atp1295
s(I0
I19
tp1296
(I0
(lp1297
I164
atp1298
s(I5
I45
tp1299
(I0
(lp1300
I121
atp1301
s(I4
I59
tp1302
(I0
(lp1303
I48
atp1304
s(I3
I53
tp1305
(I0
(lp1306
I39
atp1307
s(I1
I18
tp1308
(I1
(lp1309
I194
atp1310
s(I4
I54
tp1311
(I0
(lp1312
I53
atp1313
s(I2
I25
tp1314
(I1
(lp1315
I182
atp1316
s(I1
I52
tp1317
(I2
(lp1318
I228
atp1319
s(I3
I25
tp1320
(I0
(lp1321
I11
atp1322
s(I2
I51
tp1323
(I2
(lp1324
I240
atp1325
s(I1
I57
tp1326
(I2
(lp1327
I233
atp1328
s(I0
I47
tp1329
(I0
(lp1330
I136
atp1331
s(I4
I18
tp1332
(I0
(lp1333
I89
atp1334
s(I3
I42
tp1335
(I0
(lp1336
I28
atp1337
s(I1
I46
tp1338
(I2
(lp1339
I222
atp1340
s(I5
I19
tp1341
(I0
(lp1342
I95
atp1343
s(I4
I45
tp1344
(I0
(lp1345
I62
atp1346
s(I2
I45
tp1347
(I2
(lp1348
I246
atp1349
s(I0
I16
tp1350
(I0
(lp1351
I167
atp1352
s(I5
I32
tp1353
(I0
(lp1354
I108
atp1355
s(I4
I56
tp1356
(I0
(lp1357
I51
atp1358
s(I3
I48
tp1359
(I0
(lp1360
I34
atp1361
s(I1
I29
tp1362
(I1
(lp1363
I205
atp1364
s(I3
I14
tp1365
(I0
(lp1366
I0
atp1367
s(I2
I26
tp1368
(I1
(lp1369
I181
atp1370
s(I1
I55
tp1371
(I2
(lp1372
I231
atp1373
s(I3
I20
tp1374
(I0
(lp1375
I6
atp1376
s(I2
I52
tp1377
(I2
(lp1378
I239
atp1379
s(I1
I36
tp1380
(I2
(lp1381
I212
atp1382
s(I0
I44
tp1383
(I0
(lp1384
I139
atp1385
s(I5
I25
tp1386
(I0
(lp1387
I101
atp1388
s(I4
I23
tp1389
(I0
(lp1390
I84
atp1391
s(I3
I41
tp1392
(I0
(lp1393
I27
atp1394
s(I2
I35
tp1395
(I1
(lp1396
I172
atp1397
s(I1
I41
tp1398
(I2
(lp1399
I217
atp1400
s(I5
I22
tp1401
(I0
(lp1402
I98
atp1403
s(I4
I34
tp1404
(I0
(lp1405
I73
atp1406
s(I3
I58
tp1407
(I0
(lp1408
I44
atp1409
s(I2
I46
tp1410
(I2
(lp1411
I245
atp1412
s(I0
I29
tp1413
(I0
(lp1414
I154
atp1415
s(I5
I35
tp1416
(I0
(lp1417
I111
atp1418
s(I2
I16
tp1419
(I1
(lp1420
I191
atp1421
s(I1
I24
tp1422
(I1
(lp1423
I200
atp1424
s(I5
I48
tp1425
(I0
(lp1426
I124
atp1427
s(I2
I31
tp1428
(I1
(lp1429
I176
atp1430
s(I0
I51
tp1431
(I0
(lp1432
I132
atp1433
s(I3
I30
tp1434
(I0
(lp1435
I16
atp1436
s(I1
I50
tp1437
(I2
(lp1438
I226
atp1439
s(I0
I38
tp1440
(I0
(lp1441
I145
atp1442
s(I4
I25
tp1443
(I0
(lp1444
I82
atp1445
s(I3
I19
tp1446
(I0
(lp1447
I5
atp1448
s(I2
I57
tp1449
(I2
(lp1450
I234
atp1451
s(I1
I39
tp1452
(I2
(lp1453
I215
atp1454
s(I0
I41
tp1455
(I0
(lp1456
I142
atp1457
s(I5
I28
tp1458
(I0
(lp1459
I104
atp1460
s(I4
I20
tp1461
(I0
(lp1462
I87
atp1463
s(I3
I36
tp1464
(I0
(lp1465
I22
atp1466
s(I2
I36
tp1467
(I1
(lp1468
I171
atp1469
s(I0
I23
tp1470
(I0
(lp1471
I160
atp1472
s(I5
I41
tp1473
(I0
(lp1474
I117
atp1475
s(I4
I39
tp1476
(I0
(lp1477
I68
atp1478
s(I3
I57
tp1479
(I0
(lp1480
I43
atp1481
s(I1
I22
tp1482
(I1
(lp1483
I198
atp1484
s(I0
I26
tp1485
(I0
(lp1486
I157
atp1487
s(I5
I38
tp1488
(I0
(lp1489
I114
atp1490
s(I4
I50
tp1491
(I0
(lp1492
I57
atp1493
s(I2
I21
tp1494
(I1
(lp1495
I186
atp1496
s(I1
I27
tp1497
(I1
(lp1498
I203
atp1499
s(I5
I51
tp1500
(I0
(lp1501
I127
atp1502
s(I0
I48
tp1503
(I0
(lp1504
I135
atp1505
s(I3
I29
tp1506
(I0
(lp1507
I15
atp1508
s(I0
I35
tp1509
(I0
(lp1510
I148
atp1511
s(I4
I30
tp1512
(I0
(lp1513
I77
atp1514
s(I3
I46
tp1515
(I0
(lp1516
I32
atp1517
ssb(dp1518
I0
(I15
I13
tp1519
sI1
(I14
I13
tp1520
sI2
(I14
I14
tp1521
sI3
(I14
I15
tp1522
sI4
(I15
I15
tp1523
sI5
(I15
I14
tp1524
sI6
(I14
I12
tp1525
sI7
(I15
I12
tp1526
sI8
(I14
I16
tp1527
sI9
(I13
I14
tp1528
sI10
(I16
I14
tp1529
sI11
(I15
I16
tp1530
stp1531
.