(ccopy_reg
_reconstructor
p0
(corigami_utils
vhelix_vbase_to_nucleotide
p1
c__builtin__
object
p2
Ntp3
Rp4
(dp5
S'strand_count'
p6
I0
sS'nuc_count'
p7
I0
sS'_stap'
p8
(dp9
(I0
I86
tp10
(I8
(lp11
I1130
atp12
s(I3
I35
tp13
(I14
(lp14
I1372
atp15
s(I6
I28
tp16
(I17
(lp17
I1488
atp18
s(I4
I36
tp19
(I14
(lp20
I1374
atp21
s(I2
I84
tp22
(I13
(lp23
I1310
atp24
s(I8
I63
tp25
(I2
(lp26
I114
atp27
s(I0
I76
tp28
(I7
(lp29
I1071
atp30
s(I5
I57
tp31
(I6
(lp32
I1035
atp33
s(I9
I62
tp34
(I3
(lp35
I156
atp36
s(I6
I54
tp37
(I0
(lp38
I15
atp39
s(I4
I66
tp40
(I16
(lp41
I1446
atp42
s(I1
I64
tp43
(I7
(lp44
I1084
atp45
s(I2
I78
tp46
(I13
(lp47
I1304
atp48
s(I7
I55
tp49
(I1
(lp50
I73
atp51
s(I5
I74
tp52
(I16
(lp53
I1431
atp54
s(I6
I72
tp55
(I0
(lp56
I33
atp57
s(I3
I86
tp58
(I13
(lp59
I1321
atp60
s(I4
I104
tp61
(I9
(lp62
I1155
atp63
s(I2
I104
tp64
(I10
(lp65
I1211
atp66
s(I7
I68
tp67
(I1
(lp68
I60
atp69
s(I5
I84
tp70
(I8
(lp71
I1141
atp72
s(I4
I118
tp73
(I15
(lp74
I1414
atp75
s(I0
I55
tp76
(I6
(lp77
I1050
atp78
s(I1
I54
tp79
(I7
(lp80
I1094
atp81
s(I2
I53
tp82
(I12
(lp83
I1279
atp84
s(I0
I45
tp85
(I5
(lp86
I998
atp87
s(I3
I40
tp88
(I14
(lp89
I1367
atp90
s(I1
I40
tp91
(I5
(lp92
I982
atp93
s(I6
I23
tp94
(I17
(lp95
I1483
atp96
s(I7
I63
tp97
(I1
(lp98
I65
atp99
s(I4
I35
tp100
(I14
(lp101
I1373
atp102
s(I2
I47
tp103
(I14
(lp104
I1357
atp105
s(I8
I38
tp106
(I18
(lp107
I1540
atp108
s(I0
I67
tp109
(I7
(lp110
I1062
atp111
s(I7
I25
tp112
(I17
(lp113
I1512
atp114
s(I9
I39
tp115
(I3
(lp116
I179
atp117
s(I7
I59
tp118
(I1
(lp119
I69
atp120
s(I6
I41
tp121
(I0
(lp122
I2
atp123
s(I4
I73
tp124
(I16
(lp125
I1453
atp126
s(I1
I89
tp127
(I8
(lp128
I1108
atp129
s(I2
I73
tp130
(I12
(lp131
I1299
atp132
s(I7
I44
tp133
(I1
(lp134
I84
atp135
s(I6
I67
tp136
(I0
(lp137
I28
atp138
s(I3
I95
tp139
(I10
(lp140
I1193
atp141
s(I4
I87
tp142
(I16
(lp143
I1467
atp144
s(I1
I115
tp145
(I11
(lp146
I1236
atp147
s(I2
I99
tp148
(I10
(lp149
I1206
atp150
s(I8
I18
tp151
(I18
(lp152
I1520
atp153
s(I9
I19
tp154
(I18
(lp155
I1560
atp156
s(I5
I93
tp157
(I9
(lp158
I1167
atp159
s(I3
I101
tp160
(I10
(lp161
I1187
atp162
s(I5
I103
tp163
(I9
(lp164
I1157
atp165
s(I0
I36
tp166
(I5
(lp167
I989
atp168
s(I9
I70
tp169
(I3
(lp170
I148
atp171
s(I4
I42
tp172
(I14
(lp173
I1380
atp174
s(I2
I38
tp175
(I14
(lp176
I1348
atp177
s(I8
I45
tp178
(I2
(lp179
I96
atp180
s(I0
I90
tp181
(I8
(lp182
I1134
atp183
s(I5
I43
tp184
(I5
(lp185
I1007
atp186
s(I3
I55
tp187
(I12
(lp188
I1268
atp189
s(I9
I40
tp190
(I3
(lp191
I178
atp192
s(I6
I32
tp193
(I17
(lp194
I1492
atp195
s(I0
I98
tp196
(I9
(lp197
I1177
atp198
s(I1
I82
tp199
(I8
(lp200
I1115
atp201
s(I2
I64
tp202
(I12
(lp203
I1290
atp204
s(I8
I51
tp205
(I2
(lp206
I102
atp207
s(I0
I112
tp208
(I11
(lp209
I1226
atp210
s(I5
I53
tp211
(I6
(lp212
I1039
atp213
s(I9
I50
tp214
(I3
(lp215
I168
atp216
s(I6
I58
tp217
(I0
(lp218
I19
atp219
s(I3
I68
tp220
(I13
(lp221
I1339
atp222
s(I4
I94
tp223
(I16
(lp224
I1474
atp225
s(I1
I116
tp226
(I11
(lp227
I1235
atp228
s(I8
I25
tp229
(I18
(lp230
I1527
atp231
s(I9
I20
tp232
(I18
(lp233
I1559
atp234
s(I5
I70
tp235
(I16
(lp236
I1435
atp237
s(I3
I106
tp238
(I15
(lp239
I1427
atp240
s(I4
I100
tp241
(I9
(lp242
I1151
atp243
s(I1
I110
tp244
(I11
(lp245
I1241
atp246
s(I7
I80
tp247
(I1
(lp248
I48
atp249
s(I0
I71
tp250
(I7
(lp251
I1066
atp252
s(I5
I96
tp253
(I9
(lp254
I1164
atp255
s(I3
I112
tp256
(I15
(lp257
I1421
atp258
s(I8
I69
tp259
(I2
(lp260
I120
atp261
s(I0
I59
tp262
(I6
(lp263
I1054
atp264
s(I9
I79
tp265
(I3
(lp266
I139
atp267
s(I1
I58
tp268
(I7
(lp269
I1090
atp270
s(I0
I81
tp271
(I8
(lp272
I1125
atp273
s(I3
I60
tp274
(I12
(lp275
I1263
atp276
s(I9
I81
tp277
(I3
(lp278
I137
atp279
s(I6
I27
tp280
(I17
(lp281
I1487
atp282
s(I4
I63
tp283
(I16
(lp284
I1443
atp285
s(I2
I91
tp286
(I10
(lp287
I1198
atp288
s(I8
I58
tp289
(I2
(lp290
I109
atp291
s(I7
I34
tp292
(I17
(lp293
I1503
atp294
s(I0
I74
tp295
(I7
(lp296
I1069
atp297
s(I5
I62
tp298
(I6
(lp299
I1030
atp300
s(I9
I59
tp301
(I3
(lp302
I159
atp303
s(I6
I61
tp304
(I0
(lp305
I22
atp306
s(I3
I77
tp307
(I13
(lp308
I1330
atp309
s(I4
I69
tp310
(I16
(lp311
I1449
atp312
s(I1
I77
tp313
(I8
(lp314
I1120
atp315
s(I2
I117
tp316
(I11
(lp317
I1259
atp318
s(I7
I56
tp319
(I1
(lp320
I72
atp321
s(I9
I29
tp322
(I18
(lp323
I1550
atp324
s(I5
I79
tp325
(I8
(lp326
I1146
atp327
s(I3
I83
tp328
(I13
(lp329
I1324
atp330
s(I4
I99
tp331
(I9
(lp332
I1150
atp333
s(I1
I103
tp334
(I10
(lp335
I1213
atp336
s(I2
I111
tp337
(I11
(lp338
I1253
atp339
s(I7
I73
tp340
(I1
(lp341
I55
atp342
s(I5
I105
tp343
(I15
(lp344
I1400
atp345
s(I8
I76
tp346
(I2
(lp347
I127
atp348
s(I0
I50
tp349
(I6
(lp350
I1045
atp351
s(I5
I115
tp352
(I15
(lp353
I1390
atp354
s(I1
I51
tp355
(I7
(lp356
I1097
atp357
s(I8
I82
tp358
(I2
(lp359
I133
atp360
s(I2
I56
tp361
(I12
(lp362
I1282
atp363
s(I0
I40
tp364
(I5
(lp365
I993
atp366
s(I3
I37
tp367
(I14
(lp368
I1370
atp369
s(I6
I18
tp370
(I17
(lp371
I1478
atp372
s(I4
I38
tp373
(I14
(lp374
I1376
atp375
s(I2
I82
tp376
(I13
(lp377
I1308
atp378
s(I8
I33
tp379
(I18
(lp380
I1535
atp381
s(I0
I78
tp382
(I8
(lp383
I1122
atp384
s(I5
I39
tp385
(I5
(lp386
I1011
atp387
s(I9
I60
tp388
(I3
(lp389
I158
atp390
s(I6
I52
tp391
(I0
(lp392
I13
atp393
s(I7
I53
tp394
(I1
(lp395
I75
atp396
s(I1
I70
tp397
(I7
(lp398
I1078
atp399
s(I2
I76
tp400
(I12
(lp401
I1302
atp402
s(I0
I100
tp403
(I9
(lp404
I1179
atp405
s(I5
I72
tp406
(I16
(lp407
I1433
atp408
s(I6
I78
tp409
(I0
(lp410
I39
atp411
s(I3
I88
tp412
(I13
(lp413
I1319
atp414
s(I4
I106
tp415
(I15
(lp416
I1402
atp417
s(I2
I102
tp418
(I10
(lp419
I1209
atp420
s(I7
I70
tp421
(I1
(lp422
I58
atp423
s(I5
I82
tp424
(I8
(lp425
I1143
atp426
s(I4
I112
tp427
(I15
(lp428
I1408
atp429
s(I1
I52
tp430
(I7
(lp431
I1096
atp432
s(I2
I51
tp433
(I12
(lp434
I1277
atp435
s(I0
I47
tp436
(I5
(lp437
I1000
atp438
s(I3
I42
tp439
(I14
(lp440
I1365
atp441
s(I9
I67
tp442
(I3
(lp443
I151
atp444
s(I1
I46
tp445
(I5
(lp446
I976
atp447
s(I6
I21
tp448
(I17
(lp449
I1481
atp450
s(I4
I45
tp451
(I14
(lp452
I1383
atp453
s(I2
I45
tp454
(I14
(lp455
I1355
atp456
s(I8
I40
tp457
(I2
(lp458
I91
atp459
s(I0
I69
tp460
(I7
(lp461
I1064
atp462
s(I3
I48
tp463
(I14
(lp464
I1359
atp465
s(I9
I37
tp466
(I18
(lp467
I1542
atp468
s(I6
I47
tp469
(I0
(lp470
I8
atp471
s(I4
I75
tp472
(I16
(lp473
I1455
atp474
s(I1
I95
tp475
(I8
(lp476
I1102
atp477
s(I2
I71
tp478
(I12
(lp479
I1297
atp480
s(I7
I46
tp481
(I1
(lp482
I82
atp483
s(I0
I72
tp484
(I7
(lp485
I1067
atp486
s(I6
I65
tp487
(I0
(lp488
I26
atp489
s(I3
I65
tp490
(I13
(lp491
I1342
atp492
s(I4
I81
tp493
(I16
(lp494
I1461
atp495
s(I1
I113
tp496
(I11
(lp497
I1238
atp498
s(I2
I97
tp499
(I10
(lp500
I1204
atp501
s(I8
I20
tp502
(I18
(lp503
I1522
atp504
s(I5
I91
tp505
(I9
(lp506
I1169
atp507
s(I3
I103
tp508
(I10
(lp509
I1185
atp510
s(I1
I107
tp511
(I11
(lp512
I1244
atp513
s(I7
I49
tp514
(I1
(lp515
I79
atp516
s(I5
I101
tp517
(I9
(lp518
I1159
atp519
s(I8
I64
tp520
(I2
(lp521
I115
atp522
s(I0
I38
tp523
(I5
(lp524
I991
atp525
s(I9
I68
tp526
(I3
(lp527
I150
atp528
s(I1
I39
tp529
(I5
(lp530
I983
atp531
s(I2
I36
tp532
(I14
(lp533
I1346
atp534
s(I8
I47
tp535
(I2
(lp536
I98
atp537
s(I0
I92
tp538
(I9
(lp539
I1171
atp540
s(I5
I41
tp541
(I5
(lp542
I1009
atp543
s(I3
I57
tp544
(I12
(lp545
I1266
atp546
s(I9
I46
tp547
(I3
(lp548
I172
atp549
s(I6
I38
tp550
(I17
(lp551
I1498
atp552
s(I4
I50
tp553
(I6
(lp554
I1017
atp555
s(I1
I80
tp556
(I8
(lp557
I1117
atp558
s(I2
I94
tp559
(I10
(lp560
I1201
atp561
s(I8
I53
tp562
(I2
(lp563
I104
atp564
s(I7
I39
tp565
(I1
(lp566
I89
atp567
s(I5
I51
tp568
(I6
(lp569
I1041
atp570
s(I9
I48
tp571
(I3
(lp572
I170
atp573
s(I6
I56
tp574
(I0
(lp575
I17
atp576
s(I3
I70
tp577
(I13
(lp578
I1337
atp579
s(I4
I88
tp580
(I16
(lp581
I1468
atp582
s(I1
I74
tp583
(I7
(lp584
I1074
atp585
s(I8
I27
tp586
(I18
(lp587
I1529
atp588
s(I7
I61
tp589
(I1
(lp590
I67
atp591
s(I9
I26
tp592
(I18
(lp593
I1553
atp594
s(I5
I68
tp595
(I16
(lp596
I1437
atp597
s(I6
I82
tp598
(I0
(lp599
I43
atp600
s(I3
I108
tp601
(I15
(lp602
I1425
atp603
s(I4
I102
tp604
(I9
(lp605
I1153
atp606
s(I1
I108
tp607
(I11
(lp608
I1243
atp609
s(I7
I82
tp610
(I1
(lp611
I46
atp612
s(I5
I110
tp613
(I15
(lp614
I1395
atp615
s(I3
I114
tp616
(I15
(lp617
I1419
atp618
s(I8
I71
tp619
(I2
(lp620
I122
atp621
s(I0
I61
tp622
(I6
(lp623
I1056
atp624
s(I7
I22
tp625
(I17
(lp626
I1515
atp627
s(I9
I77
tp628
(I3
(lp629
I141
atp630
s(I1
I56
tp631
(I7
(lp632
I1092
atp633
s(I2
I63
tp634
(I12
(lp635
I1289
atp636
s(I0
I83
tp637
(I8
(lp638
I1127
atp639
s(I3
I62
tp640
(I12
(lp641
I1261
atp642
s(I6
I25
tp643
(I17
(lp644
I1485
atp645
s(I4
I57
tp646
(I6
(lp647
I1024
atp648
s(I2
I89
tp649
(I13
(lp650
I1315
atp651
s(I8
I60
tp652
(I2
(lp653
I111
atp654
s(I0
I73
tp655
(I7
(lp656
I1068
atp657
s(I5
I60
tp658
(I6
(lp659
I1032
atp660
s(I9
I57
tp661
(I3
(lp662
I161
atp663
s(I6
I51
tp664
(I0
(lp665
I12
atp666
s(I3
I79
tp667
(I13
(lp668
I1328
atp669
s(I4
I71
tp670
(I16
(lp671
I1451
atp672
s(I1
I67
tp673
(I7
(lp674
I1081
atp675
s(I2
I115
tp676
(I11
(lp677
I1257
atp678
s(I7
I58
tp679
(I1
(lp680
I70
atp681
s(I0
I118
tp682
(I11
(lp683
I1232
atp684
s(I5
I77
tp685
(I8
(lp686
I1148
atp687
s(I3
I85
tp688
(I13
(lp689
I1322
atp690
s(I4
I109
tp691
(I15
(lp692
I1405
atp693
s(I1
I101
tp694
(I10
(lp695
I1215
atp696
s(I2
I109
tp697
(I11
(lp698
I1251
atp699
s(I0
I102
tp700
(I9
(lp701
I1181
atp702
s(I7
I75
tp703
(I1
(lp704
I53
atp705
s(I5
I87
tp706
(I8
(lp707
I1138
atp708
s(I8
I78
tp709
(I2
(lp710
I129
atp711
s(I0
I52
tp712
(I6
(lp713
I1047
atp714
s(I5
I113
tp715
(I15
(lp716
I1392
atp717
s(I1
I49
tp718
(I7
(lp719
I1099
atp720
s(I2
I54
tp721
(I12
(lp722
I1280
atp723
s(I0
I42
tp724
(I5
(lp725
I995
atp726
s(I3
I39
tp727
(I14
(lp728
I1368
atp729
s(I1
I43
tp730
(I5
(lp731
I979
atp732
s(I2
I80
tp733
(I13
(lp734
I1306
atp735
s(I8
I35
tp736
(I18
(lp737
I1537
atp738
s(I0
I64
tp739
(I7
(lp740
I1059
atp741
s(I5
I37
tp742
(I5
(lp743
I1013
atp744
s(I9
I34
tp745
(I18
(lp746
I1545
atp747
s(I6
I42
tp748
(I0
(lp749
I3
atp750
s(I4
I78
tp751
(I16
(lp752
I1458
atp753
s(I1
I68
tp754
(I7
(lp755
I1080
atp756
s(I2
I74
tp757
(I12
(lp758
I1300
atp759
s(I7
I51
tp760
(I1
(lp761
I77
atp762
s(I6
I76
tp763
(I0
(lp764
I37
atp765
s(I3
I90
tp766
(I13
(lp767
I1317
atp768
s(I7
I57
tp769
(I1
(lp770
I71
atp771
s(I2
I100
tp772
(I10
(lp773
I1207
atp774
s(I7
I64
tp775
(I1
(lp776
I64
atp777
s(I5
I80
tp778
(I8
(lp779
I1145
atp780
s(I3
I96
tp781
(I10
(lp782
I1192
atp783
s(I4
I114
tp784
(I15
(lp785
I1410
atp786
s(I2
I49
tp787
(I12
(lp788
I1275
atp789
s(I0
I65
tp790
(I7
(lp791
I1060
atp792
s(I3
I44
tp793
(I14
(lp794
I1363
atp795
s(I9
I65
tp796
(I3
(lp797
I153
atp798
s(I1
I44
tp799
(I5
(lp800
I978
atp801
s(I4
I47
tp802
(I14
(lp803
I1385
atp804
s(I2
I43
tp805
(I14
(lp806
I1353
atp807
s(I8
I42
tp808
(I2
(lp809
I93
atp810
s(I7
I18
tp811
(I17
(lp812
I1519
atp813
s(I5
I46
tp814
(I5
(lp815
I1004
atp816
s(I3
I50
tp817
(I12
(lp818
I1273
atp819
s(I9
I43
tp820
(I3
(lp821
I175
atp822
s(I6
I45
tp823
(I0
(lp824
I6
atp825
s(I4
I53
tp826
(I6
(lp827
I1020
atp828
s(I1
I93
tp829
(I8
(lp830
I1104
atp831
s(I2
I69
tp832
(I12
(lp833
I1295
atp834
s(I8
I48
tp835
(I2
(lp836
I99
atp837
s(I7
I40
tp838
(I1
(lp839
I88
atp840
s(I6
I71
tp841
(I0
(lp842
I32
atp843
s(I3
I67
tp844
(I13
(lp845
I1340
atp846
s(I4
I83
tp847
(I16
(lp848
I1463
atp849
s(I8
I22
tp850
(I18
(lp851
I1524
atp852
s(I0
I116
tp853
(I11
(lp854
I1230
atp855
s(I9
I23
tp856
(I18
(lp857
I1556
atp858
s(I5
I89
tp859
(I8
(lp860
I1136
atp861
s(I3
I105
tp862
(I15
(lp863
I1428
atp864
s(I1
I105
tp865
(I11
(lp866
I1246
atp867
s(I5
I99
tp868
(I9
(lp869
I1161
atp870
s(I7
I62
tp871
(I1
(lp872
I66
atp873
s(I8
I66
tp874
(I2
(lp875
I117
atp876
s(I0
I56
tp877
(I6
(lp878
I1051
atp879
s(I9
I74
tp880
(I3
(lp881
I144
atp882
s(I1
I37
tp883
(I5
(lp884
I985
atp885
s(I7
I50
tp886
(I1
(lp887
I78
atp888
s(I0
I94
tp889
(I9
(lp890
I1173
atp891
s(I3
I59
tp892
(I12
(lp893
I1264
atp894
s(I9
I44
tp895
(I3
(lp896
I174
atp897
s(I6
I36
tp898
(I17
(lp899
I1496
atp900
s(I4
I60
tp901
(I6
(lp902
I1027
atp903
s(I1
I86
tp904
(I8
(lp905
I1111
atp906
s(I2
I92
tp907
(I10
(lp908
I1199
atp909
s(I8
I55
tp910
(I2
(lp911
I106
atp912
s(I7
I33
tp913
(I17
(lp914
I1504
atp915
s(I5
I49
tp916
(I6
(lp917
I1043
atp918
s(I9
I54
tp919
(I3
(lp920
I164
atp921
s(I6
I62
tp922
(I0
(lp923
I23
atp924
s(I3
I72
tp925
(I13
(lp926
I1335
atp927
s(I4
I90
tp928
(I16
(lp929
I1470
atp930
s(I1
I72
tp931
(I7
(lp932
I1076
atp933
s(I2
I118
tp934
(I11
(lp935
I1260
atp936
s(I8
I29
tp937
(I18
(lp938
I1531
atp939
s(I0
I106
tp940
(I11
(lp941
I1220
atp942
s(I9
I24
tp943
(I18
(lp944
I1555
atp945
s(I5
I66
tp946
(I16
(lp947
I1439
atp948
s(I6
I80
tp949
(I0
(lp950
I41
atp951
s(I3
I110
tp952
(I15
(lp953
I1423
atp954
s(I4
I96
tp955
(I16
(lp956
I1476
atp957
s(I1
I98
tp958
(I10
(lp959
I1218
atp960
s(I7
I76
tp961
(I1
(lp962
I52
atp963
s(I5
I108
tp964
(I15
(lp965
I1397
atp966
s(I3
I116
tp967
(I15
(lp968
I1417
atp969
s(I8
I73
tp970
(I2
(lp971
I124
atp972
s(I0
I63
tp973
(I7
(lp974
I1058
atp975
s(I5
I118
tp976
(I15
(lp977
I1387
atp978
s(I1
I62
tp979
(I7
(lp980
I1086
atp981
s(I2
I61
tp982
(I12
(lp983
I1287
atp984
s(I0
I85
tp985
(I8
(lp986
I1129
atp987
s(I0
I79
tp988
(I8
(lp989
I1123
atp990
s(I6
I31
tp991
(I17
(lp992
I1491
atp993
s(I4
I59
tp994
(I6
(lp995
I1026
atp996
s(I2
I87
tp997
(I13
(lp998
I1313
atp999
s(I8
I62
tp1000
(I2
(lp1001
I113
atp1002
s(I0
I75
tp1003
(I7
(lp1004
I1070
atp1005
s(I5
I58
tp1006
(I6
(lp1007
I1034
atp1008
s(I9
I63
tp1009
(I3
(lp1010
I155
atp1011
s(I6
I49
tp1012
(I0
(lp1013
I10
atp1014
s(I4
I65
tp1015
(I16
(lp1016
I1445
atp1017
s(I1
I65
tp1018
(I7
(lp1019
I1083
atp1020
s(I2
I113
tp1021
(I11
(lp1022
I1255
atp1023
s(I7
I52
tp1024
(I1
(lp1025
I76
atp1026
s(I5
I75
tp1027
(I16
(lp1028
I1430
atp1029
s(I6
I75
tp1030
(I0
(lp1031
I36
atp1032
s(I3
I87
tp1033
(I13
(lp1034
I1320
atp1035
s(I4
I111
tp1036
(I15
(lp1037
I1407
atp1038
s(I2
I107
tp1039
(I11
(lp1040
I1249
atp1041
s(I0
I114
tp1042
(I11
(lp1043
I1228
atp1044
s(I7
I69
tp1045
(I1
(lp1046
I59
atp1047
s(I5
I85
tp1048
(I8
(lp1049
I1140
atp1050
s(I4
I117
tp1051
(I15
(lp1052
I1413
atp1053
s(I0
I54
tp1054
(I6
(lp1055
I1049
atp1056
s(I1
I55
tp1057
(I7
(lp1058
I1093
atp1059
s(I2
I52
tp1060
(I12
(lp1061
I1278
atp1062
s(I0
I44
tp1063
(I5
(lp1064
I997
atp1065
s(I3
I41
tp1066
(I14
(lp1067
I1366
atp1068
s(I1
I41
tp1069
(I5
(lp1070
I981
atp1071
s(I6
I22
tp1072
(I17
(lp1073
I1482
atp1074
s(I7
I48
tp1075
(I1
(lp1076
I80
atp1077
s(I2
I46
tp1078
(I14
(lp1079
I1356
atp1080
s(I8
I37
tp1081
(I18
(lp1082
I1539
atp1083
s(I0
I66
tp1084
(I7
(lp1085
I1061
atp1086
s(I5
I35
tp1087
(I5
(lp1088
I1015
atp1089
s(I9
I32
tp1090
(I18
(lp1091
I1547
atp1092
s(I6
I40
tp1093
(I0
(lp1094
I1
atp1095
s(I4
I72
tp1096
(I16
(lp1097
I1452
atp1098
s(I1
I90
tp1099
(I8
(lp1100
I1107
atp1101
s(I2
I72
tp1102
(I12
(lp1103
I1298
atp1104
s(I7
I45
tp1105
(I1
(lp1106
I83
atp1107
s(I6
I66
tp1108
(I0
(lp1109
I27
atp1110
s(I3
I92
tp1111
(I10
(lp1112
I1196
atp1113
s(I4
I86
tp1114
(I16
(lp1115
I1466
atp1116
s(I2
I98
tp1117
(I10
(lp1118
I1205
atp1119
s(I7
I66
tp1120
(I1
(lp1121
I62
atp1122
s(I5
I94
tp1123
(I9
(lp1124
I1166
atp1125
s(I3
I98
tp1126
(I10
(lp1127
I1190
atp1128
s(I0
I104
tp1129
(I9
(lp1130
I1183
atp1131
s(I0
I35
tp1132
(I5
(lp1133
I988
atp1134
s(I3
I46
tp1135
(I14
(lp1136
I1361
atp1137
s(I9
I71
tp1138
(I3
(lp1139
I147
atp1140
s(I4
I41
tp1141
(I14
(lp1142
I1379
atp1143
s(I2
I41
tp1144
(I14
(lp1145
I1351
atp1146
s(I8
I44
tp1147
(I2
(lp1148
I95
atp1149
s(I0
I89
tp1150
(I8
(lp1151
I1133
atp1152
s(I0
I77
tp1153
(I8
(lp1154
I1121
atp1155
s(I5
I44
tp1156
(I5
(lp1157
I1006
atp1158
s(I3
I52
tp1159
(I12
(lp1160
I1271
atp1161
s(I9
I41
tp1162
(I3
(lp1163
I177
atp1164
s(I6
I35
tp1165
(I17
(lp1166
I1495
atp1167
s(I4
I55
tp1168
(I6
(lp1169
I1022
atp1170
s(I1
I83
tp1171
(I8
(lp1172
I1114
atp1173
s(I2
I67
tp1174
(I12
(lp1175
I1293
atp1176
s(I8
I50
tp1177
(I2
(lp1178
I101
atp1179
s(I7
I42
tp1180
(I1
(lp1181
I86
atp1182
s(I5
I54
tp1183
(I6
(lp1184
I1038
atp1185
s(I9
I51
tp1186
(I3
(lp1187
I167
atp1188
s(I6
I69
tp1189
(I0
(lp1190
I30
atp1191
s(I3
I69
tp1192
(I13
(lp1193
I1338
atp1194
s(I4
I93
tp1195
(I16
(lp1196
I1473
atp1197
s(I1
I117
tp1198
(I11
(lp1199
I1234
atp1200
s(I8
I24
tp1201
(I18
(lp1202
I1526
atp1203
s(I9
I21
tp1204
(I18
(lp1205
I1558
atp1206
s(I5
I71
tp1207
(I16
(lp1208
I1434
atp1209
s(I3
I107
tp1210
(I15
(lp1211
I1426
atp1212
s(I1
I111
tp1213
(I11
(lp1214
I1240
atp1215
s(I7
I37
tp1216
(I17
(lp1217
I1500
atp1218
s(I7
I81
tp1219
(I1
(lp1220
I47
atp1221
s(I5
I97
tp1222
(I9
(lp1223
I1163
atp1224
s(I3
I113
tp1225
(I15
(lp1226
I1420
atp1227
s(I8
I68
tp1228
(I2
(lp1229
I119
atp1230
s(I0
I58
tp1231
(I6
(lp1232
I1053
atp1233
s(I9
I72
tp1234
(I3
(lp1235
I146
atp1236
s(I1
I59
tp1237
(I7
(lp1238
I1089
atp1239
s(I0
I80
tp1240
(I8
(lp1241
I1124
atp1242
s(I3
I61
tp1243
(I12
(lp1244
I1262
atp1245
s(I9
I82
tp1246
(I3
(lp1247
I136
atp1248
s(I6
I26
tp1249
(I17
(lp1250
I1486
atp1251
s(I4
I62
tp1252
(I6
(lp1253
I1029
atp1254
s(I1
I84
tp1255
(I8
(lp1256
I1113
atp1257
s(I2
I90
tp1258
(I13
(lp1259
I1316
atp1260
s(I8
I57
tp1261
(I2
(lp1262
I108
atp1263
s(I7
I35
tp1264
(I17
(lp1265
I1502
atp1266
s(I5
I63
tp1267
(I16
(lp1268
I1442
atp1269
s(I9
I52
tp1270
(I3
(lp1271
I166
atp1272
s(I6
I60
tp1273
(I0
(lp1274
I21
atp1275
s(I3
I74
tp1276
(I13
(lp1277
I1333
atp1278
s(I4
I68
tp1279
(I16
(lp1280
I1448
atp1281
s(I1
I78
tp1282
(I8
(lp1283
I1119
atp1284
s(I2
I116
tp1285
(I11
(lp1286
I1258
atp1287
s(I8
I31
tp1288
(I18
(lp1289
I1533
atp1290
s(I0
I108
tp1291
(I11
(lp1292
I1222
atp1293
s(I9
I30
tp1294
(I18
(lp1295
I1549
atp1296
s(I5
I64
tp1297
(I16
(lp1298
I1441
atp1299
s(I3
I80
tp1300
(I13
(lp1301
I1327
atp1302
s(I4
I98
tp1303
(I9
(lp1304
I1149
atp1305
s(I1
I96
tp1306
(I8
(lp1307
I1101
atp1308
s(I2
I110
tp1309
(I11
(lp1310
I1252
atp1311
s(I7
I78
tp1312
(I1
(lp1313
I50
atp1314
s(I5
I106
tp1315
(I15
(lp1316
I1399
atp1317
s(I3
I118
tp1318
(I15
(lp1319
I1415
atp1320
s(I8
I75
tp1321
(I2
(lp1322
I126
atp1323
s(I0
I111
tp1324
(I11
(lp1325
I1225
atp1326
s(I0
I49
tp1327
(I6
(lp1328
I1044
atp1329
s(I5
I116
tp1330
(I15
(lp1331
I1389
atp1332
s(I1
I60
tp1333
(I7
(lp1334
I1088
atp1335
s(I8
I81
tp1336
(I2
(lp1337
I132
atp1338
s(I2
I59
tp1339
(I12
(lp1340
I1285
atp1341
s(I0
I87
tp1342
(I8
(lp1343
I1131
atp1344
s(I6
I29
tp1345
(I17
(lp1346
I1489
atp1347
s(I4
I37
tp1348
(I14
(lp1349
I1375
atp1350
s(I2
I85
tp1351
(I13
(lp1352
I1311
atp1353
s(I8
I32
tp1354
(I18
(lp1355
I1534
atp1356
s(I7
I24
tp1357
(I17
(lp1358
I1513
atp1359
s(I7
I30
tp1360
(I17
(lp1361
I1507
atp1362
s(I5
I56
tp1363
(I6
(lp1364
I1036
atp1365
s(I9
I61
tp1366
(I3
(lp1367
I157
atp1368
s(I6
I55
tp1369
(I0
(lp1370
I16
atp1371
s(I4
I67
tp1372
(I16
(lp1373
I1447
atp1374
s(I1
I71
tp1375
(I7
(lp1376
I1077
atp1377
s(I2
I79
tp1378
(I13
(lp1379
I1305
atp1380
s(I7
I54
tp1381
(I1
(lp1382
I74
atp1383
s(I5
I73
tp1384
(I16
(lp1385
I1432
atp1386
s(I6
I73
tp1387
(I0
(lp1388
I34
atp1389
s(I3
I89
tp1390
(I13
(lp1391
I1318
atp1392
s(I4
I105
tp1393
(I15
(lp1394
I1401
atp1395
s(I1
I92
tp1396
(I8
(lp1397
I1105
atp1398
s(I2
I105
tp1399
(I11
(lp1400
I1247
atp1401
s(I7
I71
tp1402
(I1
(lp1403
I57
atp1404
s(I5
I83
tp1405
(I8
(lp1406
I1142
atp1407
s(I1
I53
tp1408
(I7
(lp1409
I1095
atp1410
s(I2
I50
tp1411
(I12
(lp1412
I1276
atp1413
s(I0
I46
tp1414
(I5
(lp1415
I999
atp1416
s(I3
I43
tp1417
(I14
(lp1418
I1364
atp1419
s(I1
I47
tp1420
(I5
(lp1421
I975
atp1422
s(I6
I20
tp1423
(I17
(lp1424
I1480
atp1425
s(I4
I44
tp1426
(I14
(lp1427
I1382
atp1428
s(I2
I44
tp1429
(I14
(lp1430
I1354
atp1431
s(I8
I39
tp1432
(I2
(lp1433
I90
atp1434
s(I0
I68
tp1435
(I7
(lp1436
I1063
atp1437
s(I3
I49
tp1438
(I12
(lp1439
I1274
atp1440
s(I9
I38
tp1441
(I18
(lp1442
I1541
atp1443
s(I6
I46
tp1444
(I0
(lp1445
I7
atp1446
s(I4
I74
tp1447
(I16
(lp1448
I1454
atp1449
s(I1
I88
tp1450
(I8
(lp1451
I1109
atp1452
s(I2
I70
tp1453
(I12
(lp1454
I1296
atp1455
s(I7
I47
tp1456
(I1
(lp1457
I81
atp1458
s(I6
I64
tp1459
(I0
(lp1460
I25
atp1461
s(I3
I94
tp1462
(I10
(lp1463
I1194
atp1464
s(I4
I80
tp1465
(I16
(lp1466
I1460
atp1467
s(I1
I114
tp1468
(I11
(lp1469
I1237
atp1470
s(I2
I96
tp1471
(I10
(lp1472
I1203
atp1473
s(I8
I19
tp1474
(I18
(lp1475
I1521
atp1476
s(I9
I18
tp1477
(I18
(lp1478
I1561
atp1479
s(I5
I92
tp1480
(I9
(lp1481
I1168
atp1482
s(I3
I100
tp1483
(I10
(lp1484
I1188
atp1485
s(I0
I70
tp1486
(I7
(lp1487
I1065
atp1488
s(I5
I102
tp1489
(I9
(lp1490
I1158
atp1491
s(I0
I37
tp1492
(I5
(lp1493
I990
atp1494
s(I9
I69
tp1495
(I3
(lp1496
I149
atp1497
s(I4
I43
tp1498
(I14
(lp1499
I1381
atp1500
s(I2
I39
tp1501
(I14
(lp1502
I1349
atp1503
s(I8
I46
tp1504
(I2
(lp1505
I97
atp1506
s(I0
I91
tp1507
(I9
(lp1508
I1170
atp1509
s(I5
I42
tp1510
(I5
(lp1511
I1008
atp1512
s(I3
I54
tp1513
(I12
(lp1514
I1269
atp1515
s(I9
I47
tp1516
(I3
(lp1517
I171
atp1518
s(I6
I33
tp1519
(I17
(lp1520
I1493
atp1521
s(I4
I49
tp1522
(I6
(lp1523
I1016
atp1524
s(I1
I81
tp1525
(I8
(lp1526
I1116
atp1527
s(I2
I65
tp1528
(I12
(lp1529
I1291
atp1530
s(I8
I52
tp1531
(I2
(lp1532
I103
atp1533
s(I0
I113
tp1534
(I11
(lp1535
I1227
atp1536
s(I7
I28
tp1537
(I17
(lp1538
I1509
atp1539
s(I5
I52
tp1540
(I6
(lp1541
I1040
atp1542
s(I9
I49
tp1543
(I3
(lp1544
I169
atp1545
s(I6
I59
tp1546
(I0
(lp1547
I20
atp1548
s(I3
I71
tp1549
(I13
(lp1550
I1336
atp1551
s(I4
I95
tp1552
(I16
(lp1553
I1475
atp1554
s(I1
I75
tp1555
(I7
(lp1556
I1073
atp1557
s(I8
I26
tp1558
(I18
(lp1559
I1528
atp1560
s(I9
I27
tp1561
(I18
(lp1562
I1552
atp1563
s(I5
I69
tp1564
(I16
(lp1565
I1436
atp1566
s(I3
I109
tp1567
(I15
(lp1568
I1424
atp1569
s(I4
I101
tp1570
(I9
(lp1571
I1152
atp1572
s(I1
I109
tp1573
(I11
(lp1574
I1242
atp1575
s(I7
I83
tp1576
(I1
(lp1577
I45
atp1578
s(I5
I111
tp1579
(I15
(lp1580
I1394
atp1581
s(I0
I97
tp1582
(I9
(lp1583
I1176
atp1584
s(I3
I115
tp1585
(I15
(lp1586
I1418
atp1587
s(I8
I70
tp1588
(I2
(lp1589
I121
atp1590
s(I0
I60
tp1591
(I6
(lp1592
I1055
atp1593
s(I9
I78
tp1594
(I3
(lp1595
I140
atp1596
s(I1
I57
tp1597
(I7
(lp1598
I1091
atp1599
s(I2
I62
tp1600
(I12
(lp1601
I1288
atp1602
s(I0
I82
tp1603
(I8
(lp1604
I1126
atp1605
s(I3
I63
tp1606
(I13
(lp1607
I1344
atp1608
s(I9
I80
tp1609
(I3
(lp1610
I138
atp1611
s(I6
I24
tp1612
(I17
(lp1613
I1484
atp1614
s(I4
I56
tp1615
(I6
(lp1616
I1023
atp1617
s(I2
I88
tp1618
(I13
(lp1619
I1314
atp1620
s(I8
I59
tp1621
(I2
(lp1622
I110
atp1623
s(I7
I29
tp1624
(I17
(lp1625
I1508
atp1626
s(I5
I61
tp1627
(I6
(lp1628
I1031
atp1629
s(I9
I58
tp1630
(I3
(lp1631
I160
atp1632
s(I6
I50
tp1633
(I0
(lp1634
I11
atp1635
s(I3
I76
tp1636
(I13
(lp1637
I1331
atp1638
s(I4
I70
tp1639
(I16
(lp1640
I1450
atp1641
s(I1
I76
tp1642
(I7
(lp1643
I1072
atp1644
s(I2
I114
tp1645
(I11
(lp1646
I1256
atp1647
s(I0
I110
tp1648
(I11
(lp1649
I1224
atp1650
s(I9
I28
tp1651
(I18
(lp1652
I1551
atp1653
s(I5
I78
tp1654
(I8
(lp1655
I1147
atp1656
s(I3
I82
tp1657
(I13
(lp1658
I1325
atp1659
s(I4
I108
tp1660
(I15
(lp1661
I1404
atp1662
s(I1
I102
tp1663
(I10
(lp1664
I1214
atp1665
s(I2
I108
tp1666
(I11
(lp1667
I1250
atp1668
s(I7
I72
tp1669
(I1
(lp1670
I56
atp1671
s(I5
I104
tp1672
(I9
(lp1673
I1156
atp1674
s(I8
I77
tp1675
(I2
(lp1676
I128
atp1677
s(I0
I51
tp1678
(I6
(lp1679
I1046
atp1680
s(I5
I114
tp1681
(I15
(lp1682
I1391
atp1683
s(I4
I48
tp1684
(I14
(lp1685
I1386
atp1686
s(I1
I50
tp1687
(I7
(lp1688
I1098
atp1689
s(I8
I83
tp1690
(I2
(lp1691
I134
atp1692
s(I2
I57
tp1693
(I12
(lp1694
I1283
atp1695
s(I0
I41
tp1696
(I5
(lp1697
I994
atp1698
s(I3
I36
tp1699
(I14
(lp1700
I1371
atp1701
s(I6
I19
tp1702
(I17
(lp1703
I1479
atp1704
s(I4
I39
tp1705
(I14
(lp1706
I1377
atp1707
s(I2
I83
tp1708
(I13
(lp1709
I1309
atp1710
s(I8
I34
tp1711
(I18
(lp1712
I1536
atp1713
s(I7
I26
tp1714
(I17
(lp1715
I1511
atp1716
s(I5
I38
tp1717
(I5
(lp1718
I1012
atp1719
s(I9
I35
tp1720
(I18
(lp1721
I1544
atp1722
s(I6
I53
tp1723
(I0
(lp1724
I14
atp1725
s(I4
I77
tp1726
(I16
(lp1727
I1457
atp1728
s(I1
I69
tp1729
(I7
(lp1730
I1079
atp1731
s(I2
I77
tp1732
(I13
(lp1733
I1303
atp1734
s(I0
I101
tp1735
(I9
(lp1736
I1180
atp1737
s(I6
I79
tp1738
(I0
(lp1739
I40
atp1740
s(I3
I91
tp1741
(I10
(lp1742
I1197
atp1743
s(I4
I107
tp1744
(I15
(lp1745
I1403
atp1746
s(I2
I103
tp1747
(I10
(lp1748
I1210
atp1749
s(I7
I65
tp1750
(I1
(lp1751
I63
atp1752
s(I5
I81
tp1753
(I8
(lp1754
I1144
atp1755
s(I3
I97
tp1756
(I10
(lp1757
I1191
atp1758
s(I4
I113
tp1759
(I15
(lp1760
I1409
atp1761
s(I2
I48
tp1762
(I14
(lp1763
I1358
atp1764
s(I3
I45
tp1765
(I14
(lp1766
I1362
atp1767
s(I9
I66
tp1768
(I3
(lp1769
I152
atp1770
s(I1
I45
tp1771
(I5
(lp1772
I977
atp1773
s(I4
I46
tp1774
(I14
(lp1775
I1384
atp1776
s(I2
I42
tp1777
(I14
(lp1778
I1352
atp1779
s(I8
I41
tp1780
(I2
(lp1781
I92
atp1782
s(I7
I19
tp1783
(I17
(lp1784
I1518
atp1785
s(I5
I47
tp1786
(I5
(lp1787
I1003
atp1788
s(I3
I51
tp1789
(I12
(lp1790
I1272
atp1791
s(I9
I36
tp1792
(I18
(lp1793
I1543
atp1794
s(I6
I44
tp1795
(I0
(lp1796
I5
atp1797
s(I4
I52
tp1798
(I6
(lp1799
I1019
atp1800
s(I1
I94
tp1801
(I8
(lp1802
I1103
atp1803
s(I2
I68
tp1804
(I12
(lp1805
I1294
atp1806
s(I7
I41
tp1807
(I1
(lp1808
I87
atp1809
s(I6
I70
tp1810
(I0
(lp1811
I31
atp1812
s(I3
I64
tp1813
(I13
(lp1814
I1343
atp1815
s(I4
I82
tp1816
(I16
(lp1817
I1462
atp1818
s(I1
I112
tp1819
(I11
(lp1820
I1239
atp1821
s(I8
I21
tp1822
(I18
(lp1823
I1523
atp1824
s(I5
I90
tp1825
(I8
(lp1826
I1135
atp1827
s(I3
I102
tp1828
(I10
(lp1829
I1186
atp1830
s(I1
I106
tp1831
(I11
(lp1832
I1245
atp1833
s(I5
I100
tp1834
(I9
(lp1835
I1160
atp1836
s(I8
I65
tp1837
(I2
(lp1838
I116
atp1839
s(I0
I39
tp1840
(I5
(lp1841
I992
atp1842
s(I7
I23
tp1843
(I17
(lp1844
I1514
atp1845
s(I9
I75
tp1846
(I3
(lp1847
I143
atp1848
s(I1
I38
tp1849
(I5
(lp1850
I984
atp1851
s(I2
I37
tp1852
(I14
(lp1853
I1347
atp1854
s(I0
I93
tp1855
(I9
(lp1856
I1172
atp1857
s(I5
I40
tp1858
(I5
(lp1859
I1010
atp1860
s(I3
I56
tp1861
(I12
(lp1862
I1267
atp1863
s(I9
I45
tp1864
(I3
(lp1865
I173
atp1866
s(I6
I39
tp1867
(I0
(lp1868
I0
atp1869
s(I4
I51
tp1870
(I6
(lp1871
I1018
atp1872
s(I1
I87
tp1873
(I8
(lp1874
I1110
atp1875
s(I2
I95
tp1876
(I10
(lp1877
I1202
atp1878
s(I8
I54
tp1879
(I2
(lp1880
I105
atp1881
s(I0
I115
tp1882
(I11
(lp1883
I1229
atp1884
s(I5
I50
tp1885
(I6
(lp1886
I1042
atp1887
s(I9
I55
tp1888
(I3
(lp1889
I163
atp1890
s(I6
I57
tp1891
(I0
(lp1892
I18
atp1893
s(I3
I73
tp1894
(I13
(lp1895
I1334
atp1896
s(I4
I89
tp1897
(I16
(lp1898
I1469
atp1899
s(I1
I73
tp1900
(I7
(lp1901
I1075
atp1902
s(I8
I28
tp1903
(I18
(lp1904
I1530
atp1905
s(I7
I60
tp1906
(I1
(lp1907
I68
atp1908
s(I0
I117
tp1909
(I11
(lp1910
I1231
atp1911
s(I9
I25
tp1912
(I18
(lp1913
I1554
atp1914
s(I5
I67
tp1915
(I16
(lp1916
I1438
atp1917
s(I6
I83
tp1918
(I0
(lp1919
I44
atp1920
s(I3
I111
tp1921
(I15
(lp1922
I1422
atp1923
s(I4
I103
tp1924
(I9
(lp1925
I1154
atp1926
s(I1
I99
tp1927
(I10
(lp1928
I1217
atp1929
s(I7
I77
tp1930
(I1
(lp1931
I51
atp1932
s(I5
I109
tp1933
(I15
(lp1934
I1396
atp1935
s(I3
I117
tp1936
(I15
(lp1937
I1416
atp1938
s(I8
I72
tp1939
(I2
(lp1940
I123
atp1941
s(I0
I99
tp1942
(I9
(lp1943
I1178
atp1944
s(I0
I62
tp1945
(I6
(lp1946
I1057
atp1947
s(I9
I76
tp1948
(I3
(lp1949
I142
atp1950
s(I1
I63
tp1951
(I7
(lp1952
I1085
atp1953
s(I2
I60
tp1954
(I12
(lp1955
I1286
atp1956
s(I0
I84
tp1957
(I8
(lp1958
I1128
atp1959
s(I6
I30
tp1960
(I17
(lp1961
I1490
atp1962
s(I4
I58
tp1963
(I6
(lp1964
I1025
atp1965
s(I2
I86
tp1966
(I13
(lp1967
I1312
atp1968
s(I8
I61
tp1969
(I2
(lp1970
I112
atp1971
s(I7
I31
tp1972
(I17
(lp1973
I1506
atp1974
s(I5
I59
tp1975
(I6
(lp1976
I1033
atp1977
s(I9
I56
tp1978
(I3
(lp1979
I162
atp1980
s(I6
I48
tp1981
(I0
(lp1982
I9
atp1983
s(I3
I78
tp1984
(I13
(lp1985
I1329
atp1986
s(I4
I64
tp1987
(I16
(lp1988
I1444
atp1989
s(I1
I66
tp1990
(I7
(lp1991
I1082
atp1992
s(I2
I112
tp1993
(I11
(lp1994
I1254
atp1995
s(I0
I96
tp1996
(I9
(lp1997
I1175
atp1998
s(I5
I76
tp1999
(I16
(lp2000
I1429
atp2001
s(I6
I74
tp2002
(I0
(lp2003
I35
atp2004
s(I3
I84
tp2005
(I13
(lp2006
I1323
atp2007
s(I4
I110
tp2008
(I15
(lp2009
I1406
atp2010
s(I1
I100
tp2011
(I10
(lp2012
I1216
atp2013
s(I2
I106
tp2014
(I11
(lp2015
I1248
atp2016
s(I7
I74
tp2017
(I1
(lp2018
I54
atp2019
s(I5
I86
tp2020
(I8
(lp2021
I1139
atp2022
s(I4
I116
tp2023
(I15
(lp2024
I1412
atp2025
s(I8
I79
tp2026
(I2
(lp2027
I130
atp2028
s(I0
I53
tp2029
(I6
(lp2030
I1048
atp2031
s(I5
I112
tp2032
(I15
(lp2033
I1393
atp2034
s(I1
I48
tp2035
(I5
(lp2036
I974
atp2037
s(I2
I55
tp2038
(I12
(lp2039
I1281
atp2040
s(I0
I43
tp2041
(I5
(lp2042
I996
atp2043
s(I7
I21
tp2044
(I17
(lp2045
I1516
atp2046
s(I3
I38
tp2047
(I14
(lp2048
I1369
atp2049
s(I1
I42
tp2050
(I5
(lp2051
I980
atp2052
s(I2
I81
tp2053
(I13
(lp2054
I1307
atp2055
s(I8
I36
tp2056
(I18
(lp2057
I1538
atp2058
s(I7
I20
tp2059
(I17
(lp2060
I1517
atp2061
s(I5
I36
tp2062
(I5
(lp2063
I1014
atp2064
s(I9
I33
tp2065
(I18
(lp2066
I1546
atp2067
s(I6
I43
tp2068
(I0
(lp2069
I4
atp2070
s(I4
I79
tp2071
(I16
(lp2072
I1459
atp2073
s(I1
I91
tp2074
(I8
(lp2075
I1106
atp2076
s(I2
I75
tp2077
(I12
(lp2078
I1301
atp2079
s(I0
I103
tp2080
(I9
(lp2081
I1182
atp2082
s(I6
I77
tp2083
(I0
(lp2084
I38
atp2085
s(I3
I93
tp2086
(I10
(lp2087
I1195
atp2088
s(I4
I85
tp2089
(I16
(lp2090
I1465
atp2091
s(I2
I101
tp2092
(I10
(lp2093
I1208
atp2094
s(I7
I38
tp2095
(I17
(lp2096
I1499
atp2097
s(I7
I67
tp2098
(I1
(lp2099
I61
atp2100
s(I5
I95
tp2101
(I9
(lp2102
I1165
atp2103
s(I3
I99
tp2104
(I10
(lp2105
I1189
atp2106
s(I4
I115
tp2107
(I15
(lp2108
I1411
atp2109
s(I3
I47
tp2110
(I14
(lp2111
I1360
atp2112
s(I9
I64
tp2113
(I3
(lp2114
I154
atp2115
s(I1
I35
tp2116
(I5
(lp2117
I987
atp2118
s(I4
I40
tp2119
(I14
(lp2120
I1378
atp2121
s(I2
I40
tp2122
(I14
(lp2123
I1350
atp2124
s(I8
I43
tp2125
(I2
(lp2126
I94
atp2127
s(I0
I88
tp2128
(I8
(lp2129
I1132
atp2130
s(I5
I45
tp2131
(I5
(lp2132
I1005
atp2133
s(I3
I53
tp2134
(I12
(lp2135
I1270
atp2136
s(I9
I42
tp2137
(I3
(lp2138
I176
atp2139
s(I6
I34
tp2140
(I17
(lp2141
I1494
atp2142
s(I4
I54
tp2143
(I6
(lp2144
I1021
atp2145
s(I0
I109
tp2146
(I11
(lp2147
I1223
atp2148
s(I2
I66
tp2149
(I12
(lp2150
I1292
atp2151
s(I8
I49
tp2152
(I2
(lp2153
I100
atp2154
s(I7
I43
tp2155
(I1
(lp2156
I85
atp2157
s(I5
I55
tp2158
(I6
(lp2159
I1037
atp2160
s(I6
I68
tp2161
(I0
(lp2162
I29
atp2163
s(I3
I66
tp2164
(I13
(lp2165
I1341
atp2166
s(I4
I92
tp2167
(I16
(lp2168
I1472
atp2169
s(I1
I118
tp2170
(I11
(lp2171
I1233
atp2172
s(I8
I23
tp2173
(I18
(lp2174
I1525
atp2175
s(I9
I22
tp2176
(I18
(lp2177
I1557
atp2178
s(I5
I88
tp2179
(I8
(lp2180
I1137
atp2181
s(I3
I104
tp2182
(I10
(lp2183
I1184
atp2184
s(I0
I105
tp2185
(I11
(lp2186
I1219
atp2187
s(I1
I104
tp2188
(I10
(lp2189
I1212
atp2190
s(I5
I98
tp2191
(I9
(lp2192
I1162
atp2193
s(I8
I67
tp2194
(I2
(lp2195
I118
atp2196
s(I4
I84
tp2197
(I16
(lp2198
I1464
atp2199
s(I0
I57
tp2200
(I6
(lp2201
I1052
atp2202
s(I9
I73
tp2203
(I3
(lp2204
I145
atp2205
s(I1
I36
tp2206
(I5
(lp2207
I986
atp2208
s(I0
I48
tp2209
(I5
(lp2210
I1001
atp2211
s(I2
I35
tp2212
(I14
(lp2213
I1345
atp2214
s(I0
I95
tp2215
(I9
(lp2216
I1174
atp2217
s(I7
I27
tp2218
(I17
(lp2219
I1510
atp2220
s(I3
I58
tp2221
(I12
(lp2222
I1265
atp2223
s(I9
I83
tp2224
(I3
(lp2225
I135
atp2226
s(I6
I37
tp2227
(I17
(lp2228
I1497
atp2229
s(I4
I61
tp2230
(I6
(lp2231
I1028
atp2232
s(I1
I85
tp2233
(I8
(lp2234
I1112
atp2235
s(I2
I93
tp2236
(I10
(lp2237
I1200
atp2238
s(I8
I56
tp2239
(I2
(lp2240
I107
atp2241
s(I7
I32
tp2242
(I17
(lp2243
I1505
atp2244
s(I5
I48
tp2245
(I5
(lp2246
I1002
atp2247
s(I9
I53
tp2248
(I3
(lp2249
I165
atp2250
s(I6
I63
tp2251
(I0
(lp2252
I24
atp2253
s(I3
I75
tp2254
(I13
(lp2255
I1332
atp2256
s(I4
I91
tp2257
(I16
(lp2258
I1471
atp2259
s(I1
I79
tp2260
(I8
(lp2261
I1118
atp2262
s(I8
I30
tp2263
(I18
(lp2264
I1532
atp2265
s(I0
I107
tp2266
(I11
(lp2267
I1221
atp2268
s(I9
I31
tp2269
(I18
(lp2270
I1548
atp2271
s(I5
I65
tp2272
(I16
(lp2273
I1440
atp2274
s(I6
I81
tp2275
(I0
(lp2276
I42
atp2277
s(I3
I81
tp2278
(I13
(lp2279
I1326
atp2280
s(I4
I97
tp2281
(I16
(lp2282
I1477
atp2283
s(I1
I97
tp2284
(I8
(lp2285
I1100
atp2286
s(I7
I36
tp2287
(I17
(lp2288
I1501
atp2289
s(I7
I79
tp2290
(I1
(lp2291
I49
atp2292
s(I5
I107
tp2293
(I15
(lp2294
I1398
atp2295
s(I8
I74
tp2296
(I2
(lp2297
I125
atp2298
s(I4
I76
tp2299
(I16
(lp2300
I1456
atp2301
s(I5
I117
tp2302
(I15
(lp2303
I1388
atp2304
s(I1
I61
tp2305
(I7
(lp2306
I1087
atp2307
s(I8
I80
tp2308
(I2
(lp2309
I131
atp2310
s(I2
I58
tp2311
(I12
(lp2312
I1284
atp2313
ssS'_scaf'
p2314
(dp2315
(I7
I3
tp2316
(I4
(lp2317
I917
atp2318
s(I3
I35
tp2319
(I4
(lp2320
I780
atp2321
s(I0
I86
tp2322
(I4
(lp2323
I642
atp2324
s(I6
I28
tp2325
(I4
(lp2326
I885
atp2327
s(I4
I36
tp2328
(I4
(lp2329
I852
atp2330
s(I2
I84
tp2331
(I4
(lp2332
I532
atp2333
s(I7
I25
tp2334
(I4
(lp2335
I939
atp2336
s(I5
I57
tp2337
(I4
(lp2338
I322
atp2339
s(I6
I54
tp2340
(I4
(lp2341
I859
atp2342
s(I4
I66
tp2343
(I4
(lp2344
I822
atp2345
s(I1
I64
tp2346
(I4
(lp2347
I733
atp2348
s(I2
I78
tp2349
(I4
(lp2350
I538
atp2351
s(I8
I5
tp2352
(I4
(lp2353
I234
atp2354
s(I7
I55
tp2355
(I4
(lp2356
I969
atp2357
s(I9
I0
tp2358
(I4
(lp2359
I240
atp2360
s(I5
I74
tp2361
(I4
(lp2362
I339
atp2363
s(I3
I86
tp2364
(I4
(lp2365
I455
atp2366
s(I4
I104
tp2367
(I4
(lp2368
I408
atp2369
s(I1
I122
tp2370
(I4
(lp2371
I603
atp2372
s(I2
I104
tp2373
(I4
(lp2374
I512
atp2375
s(I7
I12
tp2376
(I4
(lp2377
I926
atp2378
s(I5
I84
tp2379
(I4
(lp2380
I349
atp2381
s(I4
I118
tp2382
(I4
(lp2383
I394
atp2384
s(I0
I55
tp2385
(I4
(lp2386
I673
atp2387
s(I1
I54
tp2388
(I4
(lp2389
I723
atp2390
s(I2
I53
tp2391
(I4
(lp2392
I751
atp2393
s(I0
I45
tp2394
(I4
(lp2395
I683
atp2396
s(I3
I40
tp2397
(I4
(lp2398
I785
atp2399
s(I1
I40
tp2400
(I4
(lp2401
I709
atp2402
s(I6
I23
tp2403
(I4
(lp2404
I890
atp2405
s(I4
I35
tp2406
(I4
(lp2407
I853
atp2408
s(I2
I47
tp2409
(I4
(lp2410
I757
atp2411
s(I8
I38
tp2412
(I4
(lp2413
I201
atp2414
s(I0
I67
tp2415
(I4
(lp2416
I661
atp2417
s(I0
I76
tp2418
(I4
(lp2419
I652
atp2420
s(I9
I39
tp2421
(I4
(lp2422
I279
atp2423
s(I6
I41
tp2424
(I4
(lp2425
I872
atp2426
s(I4
I73
tp2427
(I4
(lp2428
I439
atp2429
s(I1
I89
tp2430
(I4
(lp2431
I570
atp2432
s(I2
I73
tp2433
(I4
(lp2434
I543
atp2435
s(I8
I12
tp2436
(I4
(lp2437
I227
atp2438
s(I0
I121
tp2439
(I4
(lp2440
I607
atp2441
s(I9
I9
tp2442
(I4
(lp2443
I249
atp2444
s(I3
I95
tp2445
(I4
(lp2446
I464
atp2447
s(I4
I87
tp2448
(I4
(lp2449
I425
atp2450
s(I1
I115
tp2451
(I4
(lp2452
I596
atp2453
s(I2
I99
tp2454
(I4
(lp2455
I517
atp2456
s(I8
I18
tp2457
(I4
(lp2458
I221
atp2459
s(I9
I19
tp2460
(I4
(lp2461
I259
atp2462
s(I5
I93
tp2463
(I4
(lp2464
I358
atp2465
s(I3
I101
tp2466
(I4
(lp2467
I470
atp2468
s(I5
I103
tp2469
(I4
(lp2470
I368
atp2471
s(I0
I36
tp2472
(I4
(lp2473
I692
atp2474
s(I1
I33
tp2475
(I4
(lp2476
I702
atp2477
s(I6
I14
tp2478
(I4
(lp2479
I899
atp2480
s(I4
I42
tp2481
(I4
(lp2482
I846
atp2483
s(I2
I38
tp2484
(I4
(lp2485
I766
atp2486
s(I8
I45
tp2487
(I4
(lp2488
I194
atp2489
s(I7
I15
tp2490
(I4
(lp2491
I929
atp2492
s(I5
I43
tp2493
(I4
(lp2494
I308
atp2495
s(I3
I55
tp2496
(I4
(lp2497
I800
atp2498
s(I9
I40
tp2499
(I4
(lp2500
I280
atp2501
s(I7
I1
tp2502
(I4
(lp2503
I915
atp2504
s(I6
I32
tp2505
(I4
(lp2506
I881
atp2507
s(I0
I98
tp2508
(I4
(lp2509
I630
atp2510
s(I1
I82
tp2511
(I4
(lp2512
I563
atp2513
s(I2
I64
tp2514
(I4
(lp2515
I740
atp2516
s(I8
I51
tp2517
(I4
(lp2518
I188
atp2519
s(I0
I112
tp2520
(I4
(lp2521
I616
atp2522
s(I5
I53
tp2523
(I4
(lp2524
I318
atp2525
s(I9
I50
tp2526
(I4
(lp2527
I290
atp2528
s(I6
I58
tp2529
(I4
(lp2530
I855
atp2531
s(I3
I68
tp2532
(I4
(lp2533
I813
atp2534
s(I4
I94
tp2535
(I4
(lp2536
I418
atp2537
s(I1
I116
tp2538
(I4
(lp2539
I597
atp2540
s(I2
I122
tp2541
(I4
(lp2542
I494
atp2543
s(I8
I25
tp2544
(I4
(lp2545
I214
atp2546
s(I9
I20
tp2547
(I4
(lp2548
I260
atp2549
s(I5
I70
tp2550
(I4
(lp2551
I335
atp2552
s(I3
I106
tp2553
(I4
(lp2554
I475
atp2555
s(I4
I100
tp2556
(I4
(lp2557
I412
atp2558
s(I1
I110
tp2559
(I4
(lp2560
I591
atp2561
s(I0
I71
tp2562
(I4
(lp2563
I657
atp2564
s(I5
I96
tp2565
(I4
(lp2566
I361
atp2567
s(I3
I112
tp2568
(I4
(lp2569
I481
atp2570
s(I0
I59
tp2571
(I4
(lp2572
I669
atp2573
s(I1
I58
tp2574
(I4
(lp2575
I727
atp2576
s(I6
I1
tp2577
(I4
(lp2578
I912
atp2579
s(I2
I33
tp2580
(I4
(lp2581
I771
atp2582
s(I7
I4
tp2583
(I4
(lp2584
I918
atp2585
s(I3
I60
tp2586
(I4
(lp2587
I805
atp2588
s(I6
I27
tp2589
(I4
(lp2590
I886
atp2591
s(I4
I63
tp2592
(I4
(lp2593
I825
atp2594
s(I2
I91
tp2595
(I4
(lp2596
I525
atp2597
s(I8
I58
tp2598
(I4
(lp2599
I181
atp2600
s(I0
I119
tp2601
(I4
(lp2602
I609
atp2603
s(I7
I31
tp2604
(I4
(lp2605
I945
atp2606
s(I5
I62
tp2607
(I4
(lp2608
I327
atp2609
s(I9
I59
tp2610
(I4
(lp2611
I299
atp2612
s(I3
I77
tp2613
(I4
(lp2614
I446
atp2615
s(I4
I69
tp2616
(I4
(lp2617
I819
atp2618
s(I1
I77
tp2619
(I4
(lp2620
I558
atp2621
s(I2
I117
tp2622
(I4
(lp2623
I499
atp2624
s(I8
I0
tp2625
(I4
(lp2626
I239
atp2627
s(I0
I109
tp2628
(I4
(lp2629
I619
atp2630
s(I9
I29
tp2631
(I4
(lp2632
I269
atp2633
s(I5
I79
tp2634
(I4
(lp2635
I344
atp2636
s(I3
I83
tp2637
(I4
(lp2638
I452
atp2639
s(I4
I99
tp2640
(I4
(lp2641
I413
atp2642
s(I1
I103
tp2643
(I4
(lp2644
I584
atp2645
s(I2
I111
tp2646
(I4
(lp2647
I505
atp2648
s(I5
I105
tp2649
(I4
(lp2650
I370
atp2651
s(I3
I121
tp2652
(I4
(lp2653
I490
atp2654
s(I2
I30
tp2655
(I4
(lp2656
I774
atp2657
s(I0
I50
tp2658
(I4
(lp2659
I678
atp2660
s(I5
I115
tp2661
(I4
(lp2662
I380
atp2663
s(I3
I31
tp2664
(I4
(lp2665
I776
atp2666
s(I1
I51
tp2667
(I4
(lp2668
I720
atp2669
s(I2
I56
tp2670
(I4
(lp2671
I748
atp2672
s(I0
I40
tp2673
(I4
(lp2674
I688
atp2675
s(I3
I37
tp2676
(I4
(lp2677
I782
atp2678
s(I6
I18
tp2679
(I4
(lp2680
I895
atp2681
s(I4
I38
tp2682
(I4
(lp2683
I850
atp2684
s(I2
I82
tp2685
(I4
(lp2686
I534
atp2687
s(I8
I33
tp2688
(I4
(lp2689
I206
atp2690
s(I7
I27
tp2691
(I4
(lp2692
I941
atp2693
s(I5
I39
tp2694
(I4
(lp2695
I304
atp2696
s(I0
I82
tp2697
(I4
(lp2698
I646
atp2699
s(I6
I52
tp2700
(I4
(lp2701
I861
atp2702
s(I7
I53
tp2703
(I4
(lp2704
I967
atp2705
s(I1
I70
tp2706
(I4
(lp2707
I551
atp2708
s(I2
I76
tp2709
(I4
(lp2710
I540
atp2711
s(I8
I7
tp2712
(I4
(lp2713
I232
atp2714
s(I7
I49
tp2715
(I4
(lp2716
I963
atp2717
s(I9
I6
tp2718
(I4
(lp2719
I246
atp2720
s(I5
I72
tp2721
(I4
(lp2722
I337
atp2723
s(I3
I88
tp2724
(I4
(lp2725
I457
atp2726
s(I4
I106
tp2727
(I4
(lp2728
I406
atp2729
s(I1
I120
tp2730
(I4
(lp2731
I601
atp2732
s(I2
I102
tp2733
(I4
(lp2734
I514
atp2735
s(I5
I82
tp2736
(I4
(lp2737
I347
atp2738
s(I4
I112
tp2739
(I4
(lp2740
I400
atp2741
s(I7
I16
tp2742
(I4
(lp2743
I930
atp2744
s(I1
I52
tp2745
(I4
(lp2746
I721
atp2747
s(I2
I51
tp2748
(I4
(lp2749
I753
atp2750
s(I0
I47
tp2751
(I4
(lp2752
I681
atp2753
s(I3
I42
tp2754
(I4
(lp2755
I787
atp2756
s(I7
I59
tp2757
(I4
(lp2758
I973
atp2759
s(I1
I46
tp2760
(I4
(lp2761
I715
atp2762
s(I6
I21
tp2763
(I4
(lp2764
I892
atp2765
s(I4
I45
tp2766
(I4
(lp2767
I843
atp2768
s(I2
I45
tp2769
(I4
(lp2770
I759
atp2771
s(I8
I40
tp2772
(I4
(lp2773
I199
atp2774
s(I0
I69
tp2775
(I4
(lp2776
I659
atp2777
s(I3
I48
tp2778
(I4
(lp2779
I793
atp2780
s(I9
I37
tp2781
(I4
(lp2782
I277
atp2783
s(I6
I47
tp2784
(I4
(lp2785
I866
atp2786
s(I4
I75
tp2787
(I4
(lp2788
I437
atp2789
s(I1
I95
tp2790
(I4
(lp2791
I576
atp2792
s(I2
I71
tp2793
(I4
(lp2794
I545
atp2795
s(I8
I14
tp2796
(I4
(lp2797
I225
atp2798
s(I7
I46
tp2799
(I4
(lp2800
I960
atp2801
s(I0
I72
tp2802
(I4
(lp2803
I656
atp2804
s(I9
I15
tp2805
(I4
(lp2806
I255
atp2807
s(I3
I65
tp2808
(I4
(lp2809
I810
atp2810
s(I4
I81
tp2811
(I4
(lp2812
I431
atp2813
s(I1
I113
tp2814
(I4
(lp2815
I594
atp2816
s(I2
I97
tp2817
(I4
(lp2818
I519
atp2819
s(I8
I20
tp2820
(I4
(lp2821
I219
atp2822
s(I9
I17
tp2823
(I4
(lp2824
I257
atp2825
s(I5
I91
tp2826
(I4
(lp2827
I356
atp2828
s(I3
I103
tp2829
(I4
(lp2830
I472
atp2831
s(I1
I107
tp2832
(I4
(lp2833
I588
atp2834
s(I5
I101
tp2835
(I4
(lp2836
I366
atp2837
s(I0
I123
tp2838
(I4
(lp2839
I605
atp2840
s(I0
I38
tp2841
(I4
(lp2842
I690
atp2843
s(I1
I39
tp2844
(I4
(lp2845
I708
atp2846
s(I6
I12
tp2847
(I4
(lp2848
I901
atp2849
s(I2
I36
tp2850
(I4
(lp2851
I768
atp2852
s(I8
I47
tp2853
(I4
(lp2854
I192
atp2855
s(I7
I9
tp2856
(I4
(lp2857
I923
atp2858
s(I5
I41
tp2859
(I4
(lp2860
I306
atp2861
s(I3
I57
tp2862
(I4
(lp2863
I802
atp2864
s(I9
I46
tp2865
(I4
(lp2866
I286
atp2867
s(I6
I38
tp2868
(I4
(lp2869
I875
atp2870
s(I4
I50
tp2871
(I4
(lp2872
I838
atp2873
s(I1
I80
tp2874
(I4
(lp2875
I561
atp2876
s(I2
I94
tp2877
(I4
(lp2878
I522
atp2879
s(I8
I53
tp2880
(I4
(lp2881
I186
atp2882
s(I0
I114
tp2883
(I4
(lp2884
I614
atp2885
s(I5
I51
tp2886
(I4
(lp2887
I316
atp2888
s(I9
I48
tp2889
(I4
(lp2890
I288
atp2891
s(I7
I5
tp2892
(I4
(lp2893
I919
atp2894
s(I6
I56
tp2895
(I4
(lp2896
I857
atp2897
s(I3
I70
tp2898
(I4
(lp2899
I815
atp2900
s(I4
I88
tp2901
(I4
(lp2902
I424
atp2903
s(I1
I74
tp2904
(I4
(lp2905
I555
atp2906
s(I2
I120
tp2907
(I4
(lp2908
I496
atp2909
s(I8
I27
tp2910
(I4
(lp2911
I212
atp2912
s(I0
I104
tp2913
(I4
(lp2914
I624
atp2915
s(I9
I26
tp2916
(I4
(lp2917
I266
atp2918
s(I5
I68
tp2919
(I4
(lp2920
I333
atp2921
s(I3
I108
tp2922
(I4
(lp2923
I477
atp2924
s(I4
I102
tp2925
(I4
(lp2926
I410
atp2927
s(I1
I108
tp2928
(I4
(lp2929
I589
atp2930
s(I5
I110
tp2931
(I4
(lp2932
I375
atp2933
s(I3
I114
tp2934
(I4
(lp2935
I483
atp2936
s(I0
I61
tp2937
(I4
(lp2938
I667
atp2939
s(I7
I22
tp2940
(I4
(lp2941
I936
atp2942
s(I1
I56
tp2943
(I4
(lp2944
I725
atp2945
s(I6
I7
tp2946
(I4
(lp2947
I906
atp2948
s(I2
I63
tp2949
(I4
(lp2950
I741
atp2951
s(I7
I6
tp2952
(I4
(lp2953
I920
atp2954
s(I3
I62
tp2955
(I4
(lp2956
I807
atp2957
s(I6
I25
tp2958
(I4
(lp2959
I888
atp2960
s(I4
I57
tp2961
(I4
(lp2962
I831
atp2963
s(I2
I89
tp2964
(I4
(lp2965
I527
atp2966
s(I7
I28
tp2967
(I4
(lp2968
I942
atp2969
s(I5
I60
tp2970
(I4
(lp2971
I325
atp2972
s(I9
I57
tp2973
(I4
(lp2974
I297
atp2975
s(I6
I51
tp2976
(I4
(lp2977
I862
atp2978
s(I3
I79
tp2979
(I4
(lp2980
I448
atp2981
s(I4
I71
tp2982
(I4
(lp2983
I817
atp2984
s(I1
I67
tp2985
(I4
(lp2986
I736
atp2987
s(I2
I115
tp2988
(I4
(lp2989
I501
atp2990
s(I8
I2
tp2991
(I4
(lp2992
I237
atp2993
s(I7
I58
tp2994
(I4
(lp2995
I972
atp2996
s(I0
I118
tp2997
(I4
(lp2998
I610
atp2999
s(I9
I3
tp3000
(I4
(lp3001
I243
atp3002
s(I5
I77
tp3003
(I4
(lp3004
I342
atp3005
s(I3
I85
tp3006
(I4
(lp3007
I454
atp3008
s(I4
I109
tp3009
(I4
(lp3010
I403
atp3011
s(I1
I101
tp3012
(I4
(lp3013
I582
atp3014
s(I2
I109
tp3015
(I4
(lp3016
I507
atp3017
s(I0
I102
tp3018
(I4
(lp3019
I626
atp3020
s(I0
I30
tp3021
(I4
(lp3022
I698
atp3023
s(I5
I87
tp3024
(I4
(lp3025
I352
atp3026
s(I3
I123
tp3027
(I4
(lp3028
I492
atp3029
s(I1
I31
tp3030
(I4
(lp3031
I700
atp3032
s(I0
I52
tp3033
(I4
(lp3034
I676
atp3035
s(I5
I113
tp3036
(I4
(lp3037
I378
atp3038
s(I1
I49
tp3039
(I4
(lp3040
I718
atp3041
s(I7
I44
tp3042
(I4
(lp3043
I958
atp3044
s(I2
I54
tp3045
(I4
(lp3046
I750
atp3047
s(I0
I42
tp3048
(I4
(lp3049
I686
atp3050
s(I3
I39
tp3051
(I4
(lp3052
I784
atp3053
s(I1
I43
tp3054
(I4
(lp3055
I712
atp3056
s(I6
I16
tp3057
(I4
(lp3058
I897
atp3059
s(I2
I80
tp3060
(I4
(lp3061
I536
atp3062
s(I8
I35
tp3063
(I4
(lp3064
I204
atp3065
s(I7
I21
tp3066
(I4
(lp3067
I935
atp3068
s(I5
I37
tp3069
(I4
(lp3070
I302
atp3071
s(I9
I34
tp3072
(I4
(lp3073
I274
atp3074
s(I6
I42
tp3075
(I4
(lp3076
I871
atp3077
s(I4
I78
tp3078
(I4
(lp3079
I434
atp3080
s(I1
I68
tp3081
(I4
(lp3082
I549
atp3083
s(I2
I74
tp3084
(I4
(lp3085
I542
atp3086
s(I8
I9
tp3087
(I4
(lp3088
I230
atp3089
s(I7
I51
tp3090
(I4
(lp3091
I965
atp3092
s(I9
I4
tp3093
(I4
(lp3094
I244
atp3095
s(I7
I11
tp3096
(I4
(lp3097
I925
atp3098
s(I3
I90
tp3099
(I4
(lp3100
I459
atp3101
s(I7
I57
tp3102
(I4
(lp3103
I971
atp3104
s(I2
I100
tp3105
(I4
(lp3106
I516
atp3107
s(I5
I80
tp3108
(I4
(lp3109
I345
atp3110
s(I3
I96
tp3111
(I4
(lp3112
I465
atp3113
s(I4
I114
tp3114
(I4
(lp3115
I398
atp3116
s(I5
I122
tp3117
(I4
(lp3118
I387
atp3119
s(I2
I49
tp3120
(I4
(lp3121
I755
atp3122
s(I0
I33
tp3123
(I4
(lp3124
I695
atp3125
s(I7
I20
tp3126
(I4
(lp3127
I934
atp3128
s(I3
I44
tp3129
(I4
(lp3130
I789
atp3131
s(I1
I44
tp3132
(I4
(lp3133
I713
atp3134
s(I6
I11
tp3135
(I4
(lp3136
I902
atp3137
s(I4
I47
tp3138
(I4
(lp3139
I841
atp3140
s(I2
I43
tp3141
(I4
(lp3142
I761
atp3143
s(I8
I42
tp3144
(I4
(lp3145
I197
atp3146
s(I7
I18
tp3147
(I4
(lp3148
I932
atp3149
s(I5
I46
tp3150
(I4
(lp3151
I311
atp3152
s(I3
I50
tp3153
(I4
(lp3154
I795
atp3155
s(I9
I43
tp3156
(I4
(lp3157
I283
atp3158
s(I6
I45
tp3159
(I4
(lp3160
I868
atp3161
s(I4
I53
tp3162
(I4
(lp3163
I835
atp3164
s(I1
I93
tp3165
(I4
(lp3166
I574
atp3167
s(I2
I69
tp3168
(I4
(lp3169
I547
atp3170
s(I8
I48
tp3171
(I4
(lp3172
I191
atp3173
s(I7
I40
tp3174
(I4
(lp3175
I954
atp3176
s(I9
I13
tp3177
(I4
(lp3178
I253
atp3179
s(I3
I67
tp3180
(I4
(lp3181
I812
atp3182
s(I4
I83
tp3183
(I4
(lp3184
I429
atp3185
s(I1
I119
tp3186
(I4
(lp3187
I600
atp3188
s(I8
I22
tp3189
(I4
(lp3190
I217
atp3191
s(I7
I33
tp3192
(I4
(lp3193
I947
atp3194
s(I9
I23
tp3195
(I4
(lp3196
I263
atp3197
s(I5
I89
tp3198
(I4
(lp3199
I354
atp3200
s(I3
I105
tp3201
(I4
(lp3202
I474
atp3203
s(I4
I121
tp3204
(I4
(lp3205
I391
atp3206
s(I1
I105
tp3207
(I4
(lp3208
I586
atp3209
s(I5
I99
tp3210
(I4
(lp3211
I364
atp3212
s(I0
I56
tp3213
(I4
(lp3214
I672
atp3215
s(I1
I37
tp3216
(I4
(lp3217
I706
atp3218
s(I6
I2
tp3219
(I4
(lp3220
I911
atp3221
s(I7
I50
tp3222
(I4
(lp3223
I964
atp3224
s(I2
I34
tp3225
(I4
(lp3226
I770
atp3227
s(I0
I94
tp3228
(I4
(lp3229
I634
atp3230
s(I3
I59
tp3231
(I4
(lp3232
I804
atp3233
s(I9
I44
tp3234
(I4
(lp3235
I284
atp3236
s(I6
I36
tp3237
(I4
(lp3238
I877
atp3239
s(I4
I60
tp3240
(I4
(lp3241
I828
atp3242
s(I1
I86
tp3243
(I4
(lp3244
I567
atp3245
s(I2
I92
tp3246
(I4
(lp3247
I524
atp3248
s(I8
I55
tp3249
(I4
(lp3250
I184
atp3251
s(I0
I116
tp3252
(I4
(lp3253
I612
atp3254
s(I5
I49
tp3255
(I4
(lp3256
I314
atp3257
s(I9
I54
tp3258
(I4
(lp3259
I294
atp3260
s(I3
I72
tp3261
(I4
(lp3262
I441
atp3263
s(I4
I90
tp3264
(I4
(lp3265
I422
atp3266
s(I1
I72
tp3267
(I4
(lp3268
I553
atp3269
s(I2
I118
tp3270
(I4
(lp3271
I498
atp3272
s(I8
I29
tp3273
(I4
(lp3274
I210
atp3275
s(I0
I106
tp3276
(I4
(lp3277
I622
atp3278
s(I9
I24
tp3279
(I4
(lp3280
I264
atp3281
s(I0
I92
tp3282
(I4
(lp3283
I636
atp3284
s(I5
I66
tp3285
(I4
(lp3286
I331
atp3287
s(I3
I110
tp3288
(I4
(lp3289
I479
atp3290
s(I4
I96
tp3291
(I4
(lp3292
I416
atp3293
s(I1
I98
tp3294
(I4
(lp3295
I579
atp3296
s(I5
I108
tp3297
(I4
(lp3298
I373
atp3299
s(I3
I116
tp3300
(I4
(lp3301
I485
atp3302
s(I0
I63
tp3303
(I4
(lp3304
I665
atp3305
s(I5
I118
tp3306
(I4
(lp3307
I383
atp3308
s(I1
I62
tp3309
(I4
(lp3310
I731
atp3311
s(I6
I5
tp3312
(I4
(lp3313
I908
atp3314
s(I2
I61
tp3315
(I4
(lp3316
I743
atp3317
s(I0
I85
tp3318
(I4
(lp3319
I643
atp3320
s(I7
I26
tp3321
(I4
(lp3322
I940
atp3323
s(I3
I32
tp3324
(I4
(lp3325
I777
atp3326
s(I6
I31
tp3327
(I4
(lp3328
I882
atp3329
s(I4
I59
tp3330
(I4
(lp3331
I829
atp3332
s(I2
I87
tp3333
(I4
(lp3334
I529
atp3335
s(I0
I75
tp3336
(I4
(lp3337
I653
atp3338
s(I5
I58
tp3339
(I4
(lp3340
I323
atp3341
s(I6
I49
tp3342
(I4
(lp3343
I864
atp3344
s(I4
I65
tp3345
(I4
(lp3346
I823
atp3347
s(I1
I65
tp3348
(I4
(lp3349
I734
atp3350
s(I2
I113
tp3351
(I4
(lp3352
I503
atp3353
s(I8
I4
tp3354
(I4
(lp3355
I235
atp3356
s(I0
I97
tp3357
(I4
(lp3358
I631
atp3359
s(I9
I1
tp3360
(I4
(lp3361
I241
atp3362
s(I5
I75
tp3363
(I4
(lp3364
I340
atp3365
s(I3
I87
tp3366
(I4
(lp3367
I456
atp3368
s(I4
I111
tp3369
(I4
(lp3370
I401
atp3371
s(I1
I123
tp3372
(I4
(lp3373
I604
atp3374
s(I2
I107
tp3375
(I4
(lp3376
I509
atp3377
s(I7
I39
tp3378
(I4
(lp3379
I953
atp3380
s(I5
I85
tp3381
(I4
(lp3382
I350
atp3383
s(I4
I117
tp3384
(I4
(lp3385
I395
atp3386
s(I0
I54
tp3387
(I4
(lp3388
I674
atp3389
s(I1
I55
tp3390
(I4
(lp3391
I724
atp3392
s(I2
I52
tp3393
(I4
(lp3394
I752
atp3395
s(I0
I44
tp3396
(I4
(lp3397
I684
atp3398
s(I3
I41
tp3399
(I4
(lp3400
I786
atp3401
s(I1
I41
tp3402
(I4
(lp3403
I710
atp3404
s(I6
I22
tp3405
(I4
(lp3406
I891
atp3407
s(I7
I48
tp3408
(I4
(lp3409
I962
atp3410
s(I2
I46
tp3411
(I4
(lp3412
I758
atp3413
s(I8
I37
tp3414
(I4
(lp3415
I202
atp3416
s(I0
I66
tp3417
(I4
(lp3418
I662
atp3419
s(I5
I35
tp3420
(I4
(lp3421
I300
atp3422
s(I9
I32
tp3423
(I4
(lp3424
I272
atp3425
s(I6
I40
tp3426
(I4
(lp3427
I873
atp3428
s(I4
I72
tp3429
(I4
(lp3430
I440
atp3431
s(I1
I90
tp3432
(I4
(lp3433
I571
atp3434
s(I2
I72
tp3435
(I4
(lp3436
I544
atp3437
s(I8
I11
tp3438
(I4
(lp3439
I228
atp3440
s(I0
I120
tp3441
(I4
(lp3442
I608
atp3443
s(I9
I10
tp3444
(I4
(lp3445
I250
atp3446
s(I3
I92
tp3447
(I4
(lp3448
I461
atp3449
s(I4
I86
tp3450
(I4
(lp3451
I426
atp3452
s(I2
I98
tp3453
(I4
(lp3454
I518
atp3455
s(I8
I17
tp3456
(I4
(lp3457
I222
atp3458
s(I0
I90
tp3459
(I4
(lp3460
I638
atp3461
s(I5
I94
tp3462
(I4
(lp3463
I359
atp3464
s(I3
I98
tp3465
(I4
(lp3466
I467
atp3467
s(I5
I120
tp3468
(I4
(lp3469
I385
atp3470
s(I7
I56
tp3471
(I4
(lp3472
I970
atp3473
s(I0
I35
tp3474
(I4
(lp3475
I693
atp3476
s(I3
I46
tp3477
(I4
(lp3478
I791
atp3479
s(I1
I34
tp3480
(I4
(lp3481
I703
atp3482
s(I6
I9
tp3483
(I4
(lp3484
I904
atp3485
s(I4
I41
tp3486
(I4
(lp3487
I847
atp3488
s(I2
I41
tp3489
(I4
(lp3490
I763
atp3491
s(I8
I44
tp3492
(I4
(lp3493
I195
atp3494
s(I0
I89
tp3495
(I4
(lp3496
I639
atp3497
s(I7
I24
tp3498
(I4
(lp3499
I938
atp3500
s(I5
I44
tp3501
(I4
(lp3502
I309
atp3503
s(I3
I52
tp3504
(I4
(lp3505
I797
atp3506
s(I9
I41
tp3507
(I4
(lp3508
I281
atp3509
s(I6
I35
tp3510
(I4
(lp3511
I878
atp3512
s(I4
I55
tp3513
(I4
(lp3514
I833
atp3515
s(I1
I83
tp3516
(I4
(lp3517
I564
atp3518
s(I2
I67
tp3519
(I4
(lp3520
I737
atp3521
s(I8
I50
tp3522
(I4
(lp3523
I189
atp3524
s(I7
I42
tp3525
(I4
(lp3526
I956
atp3527
s(I5
I54
tp3528
(I4
(lp3529
I319
atp3530
s(I9
I51
tp3531
(I4
(lp3532
I291
atp3533
s(I3
I69
tp3534
(I4
(lp3535
I814
atp3536
s(I4
I93
tp3537
(I4
(lp3538
I419
atp3539
s(I1
I117
tp3540
(I4
(lp3541
I598
atp3542
s(I8
I24
tp3543
(I4
(lp3544
I215
atp3545
s(I9
I21
tp3546
(I4
(lp3547
I261
atp3548
s(I5
I71
tp3549
(I4
(lp3550
I336
atp3551
s(I3
I107
tp3552
(I4
(lp3553
I476
atp3554
s(I4
I123
tp3555
(I4
(lp3556
I389
atp3557
s(I1
I111
tp3558
(I4
(lp3559
I592
atp3560
s(I7
I37
tp3561
(I4
(lp3562
I951
atp3563
s(I5
I97
tp3564
(I4
(lp3565
I362
atp3566
s(I3
I113
tp3567
(I4
(lp3568
I482
atp3569
s(I0
I58
tp3570
(I4
(lp3571
I670
atp3572
s(I1
I59
tp3573
(I4
(lp3574
I728
atp3575
s(I6
I0
tp3576
(I4
(lp3577
I913
atp3578
s(I2
I32
tp3579
(I4
(lp3580
I772
atp3581
s(I0
I80
tp3582
(I4
(lp3583
I648
atp3584
s(I3
I61
tp3585
(I4
(lp3586
I806
atp3587
s(I7
I0
tp3588
(I4
(lp3589
I914
atp3590
s(I6
I26
tp3591
(I4
(lp3592
I887
atp3593
s(I4
I62
tp3594
(I4
(lp3595
I826
atp3596
s(I1
I84
tp3597
(I4
(lp3598
I565
atp3599
s(I2
I90
tp3600
(I4
(lp3601
I526
atp3602
s(I8
I57
tp3603
(I4
(lp3604
I182
atp3605
s(I7
I35
tp3606
(I4
(lp3607
I949
atp3608
s(I5
I63
tp3609
(I4
(lp3610
I328
atp3611
s(I9
I52
tp3612
(I4
(lp3613
I292
atp3614
s(I3
I74
tp3615
(I4
(lp3616
I443
atp3617
s(I4
I68
tp3618
(I4
(lp3619
I820
atp3620
s(I1
I78
tp3621
(I4
(lp3622
I559
atp3623
s(I2
I116
tp3624
(I4
(lp3625
I500
atp3626
s(I8
I31
tp3627
(I4
(lp3628
I208
atp3629
s(I0
I108
tp3630
(I4
(lp3631
I620
atp3632
s(I9
I30
tp3633
(I4
(lp3634
I270
atp3635
s(I5
I64
tp3636
(I4
(lp3637
I329
atp3638
s(I3
I80
tp3639
(I4
(lp3640
I449
atp3641
s(I4
I98
tp3642
(I4
(lp3643
I414
atp3644
s(I1
I96
tp3645
(I4
(lp3646
I577
atp3647
s(I2
I110
tp3648
(I4
(lp3649
I506
atp3650
s(I7
I13
tp3651
(I4
(lp3652
I927
atp3653
s(I5
I106
tp3654
(I4
(lp3655
I371
atp3656
s(I3
I118
tp3657
(I4
(lp3658
I487
atp3659
s(I0
I49
tp3660
(I4
(lp3661
I679
atp3662
s(I5
I116
tp3663
(I4
(lp3664
I381
atp3665
s(I1
I60
tp3666
(I4
(lp3667
I729
atp3668
s(I2
I59
tp3669
(I4
(lp3670
I745
atp3671
s(I0
I87
tp3672
(I4
(lp3673
I641
atp3674
s(I3
I34
tp3675
(I4
(lp3676
I779
atp3677
s(I6
I29
tp3678
(I4
(lp3679
I884
atp3680
s(I4
I37
tp3681
(I4
(lp3682
I851
atp3683
s(I2
I85
tp3684
(I4
(lp3685
I531
atp3686
s(I8
I32
tp3687
(I4
(lp3688
I207
atp3689
s(I0
I77
tp3690
(I4
(lp3691
I651
atp3692
s(I7
I30
tp3693
(I4
(lp3694
I944
atp3695
s(I5
I56
tp3696
(I4
(lp3697
I321
atp3698
s(I6
I55
tp3699
(I4
(lp3700
I858
atp3701
s(I4
I67
tp3702
(I4
(lp3703
I821
atp3704
s(I1
I71
tp3705
(I4
(lp3706
I552
atp3707
s(I2
I79
tp3708
(I4
(lp3709
I537
atp3710
s(I8
I6
tp3711
(I4
(lp3712
I233
atp3713
s(I7
I54
tp3714
(I4
(lp3715
I968
atp3716
s(I9
I7
tp3717
(I4
(lp3718
I247
atp3719
s(I5
I73
tp3720
(I4
(lp3721
I338
atp3722
s(I3
I89
tp3723
(I4
(lp3724
I458
atp3725
s(I4
I105
tp3726
(I4
(lp3727
I407
atp3728
s(I1
I121
tp3729
(I4
(lp3730
I602
atp3731
s(I2
I105
tp3732
(I4
(lp3733
I511
atp3734
s(I5
I83
tp3735
(I4
(lp3736
I348
atp3737
s(I4
I119
tp3738
(I4
(lp3739
I393
atp3740
s(I1
I53
tp3741
(I4
(lp3742
I722
atp3743
s(I2
I50
tp3744
(I4
(lp3745
I754
atp3746
s(I0
I46
tp3747
(I4
(lp3748
I682
atp3749
s(I3
I43
tp3750
(I4
(lp3751
I788
atp3752
s(I1
I47
tp3753
(I4
(lp3754
I716
atp3755
s(I6
I20
tp3756
(I4
(lp3757
I893
atp3758
s(I4
I44
tp3759
(I4
(lp3760
I844
atp3761
s(I2
I44
tp3762
(I4
(lp3763
I760
atp3764
s(I8
I39
tp3765
(I4
(lp3766
I200
atp3767
s(I7
I17
tp3768
(I4
(lp3769
I931
atp3770
s(I3
I49
tp3771
(I4
(lp3772
I794
atp3773
s(I9
I38
tp3774
(I4
(lp3775
I278
atp3776
s(I0
I83
tp3777
(I4
(lp3778
I645
atp3779
s(I6
I46
tp3780
(I4
(lp3781
I867
atp3782
s(I7
I52
tp3783
(I4
(lp3784
I966
atp3785
s(I1
I88
tp3786
(I4
(lp3787
I569
atp3788
s(I2
I70
tp3789
(I4
(lp3790
I546
atp3791
s(I8
I13
tp3792
(I4
(lp3793
I226
atp3794
s(I0
I122
tp3795
(I4
(lp3796
I606
atp3797
s(I9
I8
tp3798
(I4
(lp3799
I248
atp3800
s(I3
I94
tp3801
(I4
(lp3802
I463
atp3803
s(I4
I80
tp3804
(I4
(lp3805
I432
atp3806
s(I1
I114
tp3807
(I4
(lp3808
I595
atp3809
s(I2
I96
tp3810
(I4
(lp3811
I520
atp3812
s(I8
I19
tp3813
(I4
(lp3814
I220
atp3815
s(I9
I18
tp3816
(I4
(lp3817
I258
atp3818
s(I5
I92
tp3819
(I4
(lp3820
I357
atp3821
s(I3
I100
tp3822
(I4
(lp3823
I469
atp3824
s(I7
I19
tp3825
(I4
(lp3826
I933
atp3827
s(I5
I102
tp3828
(I4
(lp3829
I367
atp3830
s(I0
I37
tp3831
(I4
(lp3832
I691
atp3833
s(I1
I32
tp3834
(I4
(lp3835
I701
atp3836
s(I6
I15
tp3837
(I4
(lp3838
I898
atp3839
s(I4
I43
tp3840
(I4
(lp3841
I845
atp3842
s(I2
I39
tp3843
(I4
(lp3844
I765
atp3845
s(I8
I46
tp3846
(I4
(lp3847
I193
atp3848
s(I0
I91
tp3849
(I4
(lp3850
I637
atp3851
s(I5
I42
tp3852
(I4
(lp3853
I307
atp3854
s(I3
I54
tp3855
(I4
(lp3856
I799
atp3857
s(I9
I47
tp3858
(I4
(lp3859
I287
atp3860
s(I6
I33
tp3861
(I4
(lp3862
I880
atp3863
s(I4
I49
tp3864
(I4
(lp3865
I839
atp3866
s(I1
I81
tp3867
(I4
(lp3868
I562
atp3869
s(I2
I65
tp3870
(I4
(lp3871
I739
atp3872
s(I8
I52
tp3873
(I4
(lp3874
I187
atp3875
s(I0
I113
tp3876
(I4
(lp3877
I615
atp3878
s(I0
I73
tp3879
(I4
(lp3880
I655
atp3881
s(I5
I52
tp3882
(I4
(lp3883
I317
atp3884
s(I9
I49
tp3885
(I4
(lp3886
I289
atp3887
s(I6
I59
tp3888
(I4
(lp3889
I854
atp3890
s(I3
I71
tp3891
(I4
(lp3892
I816
atp3893
s(I4
I95
tp3894
(I4
(lp3895
I417
atp3896
s(I1
I75
tp3897
(I4
(lp3898
I556
atp3899
s(I2
I123
tp3900
(I4
(lp3901
I493
atp3902
s(I8
I26
tp3903
(I4
(lp3904
I213
atp3905
s(I9
I27
tp3906
(I4
(lp3907
I267
atp3908
s(I5
I69
tp3909
(I4
(lp3910
I334
atp3911
s(I3
I109
tp3912
(I4
(lp3913
I478
atp3914
s(I4
I101
tp3915
(I4
(lp3916
I411
atp3917
s(I1
I109
tp3918
(I4
(lp3919
I590
atp3920
s(I5
I111
tp3921
(I4
(lp3922
I376
atp3923
s(I3
I115
tp3924
(I4
(lp3925
I484
atp3926
s(I0
I60
tp3927
(I4
(lp3928
I668
atp3929
s(I1
I57
tp3930
(I4
(lp3931
I726
atp3932
s(I6
I6
tp3933
(I4
(lp3934
I907
atp3935
s(I2
I62
tp3936
(I4
(lp3937
I742
atp3938
s(I7
I7
tp3939
(I4
(lp3940
I921
atp3941
s(I3
I63
tp3942
(I4
(lp3943
I808
atp3944
s(I6
I24
tp3945
(I4
(lp3946
I889
atp3947
s(I4
I56
tp3948
(I4
(lp3949
I832
atp3950
s(I2
I88
tp3951
(I4
(lp3952
I528
atp3953
s(I8
I59
tp3954
(I4
(lp3955
I180
atp3956
s(I7
I29
tp3957
(I4
(lp3958
I943
atp3959
s(I5
I61
tp3960
(I4
(lp3961
I326
atp3962
s(I9
I58
tp3963
(I4
(lp3964
I298
atp3965
s(I0
I81
tp3966
(I4
(lp3967
I647
atp3968
s(I6
I50
tp3969
(I4
(lp3970
I863
atp3971
s(I3
I76
tp3972
(I4
(lp3973
I445
atp3974
s(I0
I111
tp3975
(I4
(lp3976
I617
atp3977
s(I1
I76
tp3978
(I4
(lp3979
I557
atp3980
s(I2
I114
tp3981
(I4
(lp3982
I502
atp3983
s(I8
I1
tp3984
(I4
(lp3985
I238
atp3986
s(I0
I110
tp3987
(I4
(lp3988
I618
atp3989
s(I9
I28
tp3990
(I4
(lp3991
I268
atp3992
s(I5
I78
tp3993
(I4
(lp3994
I343
atp3995
s(I3
I82
tp3996
(I4
(lp3997
I451
atp3998
s(I4
I108
tp3999
(I4
(lp4000
I404
atp4001
s(I1
I102
tp4002
(I4
(lp4003
I583
atp4004
s(I2
I108
tp4005
(I4
(lp4006
I508
atp4007
s(I5
I104
tp4008
(I4
(lp4009
I369
atp4010
s(I3
I120
tp4011
(I4
(lp4012
I489
atp4013
s(I2
I31
tp4014
(I4
(lp4015
I773
atp4016
s(I0
I51
tp4017
(I4
(lp4018
I677
atp4019
s(I0
I68
tp4020
(I4
(lp4021
I660
atp4022
s(I5
I114
tp4023
(I4
(lp4024
I379
atp4025
s(I4
I48
tp4026
(I4
(lp4027
I840
atp4028
s(I3
I30
tp4029
(I4
(lp4030
I775
atp4031
s(I1
I50
tp4032
(I4
(lp4033
I719
atp4034
s(I2
I57
tp4035
(I4
(lp4036
I747
atp4037
s(I0
I41
tp4038
(I4
(lp4039
I687
atp4040
s(I3
I36
tp4041
(I4
(lp4042
I781
atp4043
s(I6
I19
tp4044
(I4
(lp4045
I894
atp4046
s(I4
I39
tp4047
(I4
(lp4048
I849
atp4049
s(I2
I83
tp4050
(I4
(lp4051
I533
atp4052
s(I8
I34
tp4053
(I4
(lp4054
I205
atp4055
s(I0
I79
tp4056
(I4
(lp4057
I649
atp4058
s(I5
I38
tp4059
(I4
(lp4060
I303
atp4061
s(I9
I35
tp4062
(I4
(lp4063
I275
atp4064
s(I6
I53
tp4065
(I4
(lp4066
I860
atp4067
s(I4
I77
tp4068
(I4
(lp4069
I435
atp4070
s(I1
I69
tp4071
(I4
(lp4072
I550
atp4073
s(I2
I77
tp4074
(I4
(lp4075
I539
atp4076
s(I8
I8
tp4077
(I4
(lp4078
I231
atp4079
s(I0
I101
tp4080
(I4
(lp4081
I627
atp4082
s(I7
I34
tp4083
(I4
(lp4084
I948
atp4085
s(I9
I5
tp4086
(I4
(lp4087
I245
atp4088
s(I3
I91
tp4089
(I4
(lp4090
I460
atp4091
s(I4
I107
tp4092
(I4
(lp4093
I405
atp4094
s(I2
I103
tp4095
(I4
(lp4096
I513
atp4097
s(I4
I74
tp4098
(I4
(lp4099
I438
atp4100
s(I5
I81
tp4101
(I4
(lp4102
I346
atp4103
s(I3
I97
tp4104
(I4
(lp4105
I466
atp4106
s(I4
I113
tp4107
(I4
(lp4108
I399
atp4109
s(I5
I123
tp4110
(I4
(lp4111
I388
atp4112
s(I7
I47
tp4113
(I4
(lp4114
I961
atp4115
s(I2
I48
tp4116
(I4
(lp4117
I756
atp4118
s(I0
I32
tp4119
(I4
(lp4120
I696
atp4121
s(I3
I45
tp4122
(I4
(lp4123
I790
atp4124
s(I1
I45
tp4125
(I4
(lp4126
I714
atp4127
s(I6
I10
tp4128
(I4
(lp4129
I903
atp4130
s(I4
I46
tp4131
(I4
(lp4132
I842
atp4133
s(I2
I42
tp4134
(I4
(lp4135
I762
atp4136
s(I8
I41
tp4137
(I4
(lp4138
I198
atp4139
s(I0
I70
tp4140
(I4
(lp4141
I658
atp4142
s(I5
I47
tp4143
(I4
(lp4144
I312
atp4145
s(I3
I51
tp4146
(I4
(lp4147
I796
atp4148
s(I9
I36
tp4149
(I4
(lp4150
I276
atp4151
s(I6
I44
tp4152
(I4
(lp4153
I869
atp4154
s(I4
I52
tp4155
(I4
(lp4156
I836
atp4157
s(I1
I94
tp4158
(I4
(lp4159
I575
atp4160
s(I2
I68
tp4161
(I4
(lp4162
I548
atp4163
s(I8
I15
tp4164
(I4
(lp4165
I224
atp4166
s(I7
I41
tp4167
(I4
(lp4168
I955
atp4169
s(I9
I14
tp4170
(I4
(lp4171
I254
atp4172
s(I7
I10
tp4173
(I4
(lp4174
I924
atp4175
s(I3
I64
tp4176
(I4
(lp4177
I809
atp4178
s(I4
I82
tp4179
(I4
(lp4180
I430
atp4181
s(I1
I112
tp4182
(I4
(lp4183
I593
atp4184
s(I8
I21
tp4185
(I4
(lp4186
I218
atp4187
s(I9
I16
tp4188
(I4
(lp4189
I256
atp4190
s(I5
I90
tp4191
(I4
(lp4192
I355
atp4193
s(I3
I102
tp4194
(I4
(lp4195
I471
atp4196
s(I4
I120
tp4197
(I4
(lp4198
I392
atp4199
s(I1
I106
tp4200
(I4
(lp4201
I587
atp4202
s(I5
I100
tp4203
(I4
(lp4204
I365
atp4205
s(I0
I39
tp4206
(I4
(lp4207
I689
atp4208
s(I7
I23
tp4209
(I4
(lp4210
I937
atp4211
s(I1
I38
tp4212
(I4
(lp4213
I707
atp4214
s(I6
I13
tp4215
(I4
(lp4216
I900
atp4217
s(I2
I37
tp4218
(I4
(lp4219
I767
atp4220
s(I7
I8
tp4221
(I4
(lp4222
I922
atp4223
s(I5
I40
tp4224
(I4
(lp4225
I305
atp4226
s(I0
I48
tp4227
(I4
(lp4228
I680
atp4229
s(I3
I56
tp4230
(I4
(lp4231
I801
atp4232
s(I9
I45
tp4233
(I4
(lp4234
I285
atp4235
s(I6
I39
tp4236
(I4
(lp4237
I874
atp4238
s(I4
I51
tp4239
(I4
(lp4240
I837
atp4241
s(I1
I87
tp4242
(I4
(lp4243
I568
atp4244
s(I2
I95
tp4245
(I4
(lp4246
I521
atp4247
s(I8
I54
tp4248
(I4
(lp4249
I185
atp4250
s(I7
I38
tp4251
(I4
(lp4252
I952
atp4253
s(I5
I50
tp4254
(I4
(lp4255
I315
atp4256
s(I9
I55
tp4257
(I4
(lp4258
I295
atp4259
s(I6
I57
tp4260
(I4
(lp4261
I856
atp4262
s(I3
I73
tp4263
(I4
(lp4264
I442
atp4265
s(I4
I89
tp4266
(I4
(lp4267
I423
atp4268
s(I1
I73
tp4269
(I4
(lp4270
I554
atp4271
s(I2
I121
tp4272
(I4
(lp4273
I495
atp4274
s(I8
I28
tp4275
(I4
(lp4276
I211
atp4277
s(I0
I105
tp4278
(I4
(lp4279
I623
atp4280
s(I7
I32
tp4281
(I4
(lp4282
I946
atp4283
s(I9
I25
tp4284
(I4
(lp4285
I265
atp4286
s(I5
I67
tp4287
(I4
(lp4288
I332
atp4289
s(I3
I111
tp4290
(I4
(lp4291
I480
atp4292
s(I4
I103
tp4293
(I4
(lp4294
I409
atp4295
s(I1
I99
tp4296
(I4
(lp4297
I580
atp4298
s(I5
I109
tp4299
(I4
(lp4300
I374
atp4301
s(I3
I117
tp4302
(I4
(lp4303
I486
atp4304
s(I0
I99
tp4305
(I4
(lp4306
I629
atp4307
s(I0
I62
tp4308
(I4
(lp4309
I666
atp4310
s(I5
I119
tp4311
(I4
(lp4312
I384
atp4313
s(I1
I63
tp4314
(I4
(lp4315
I732
atp4316
s(I6
I4
tp4317
(I4
(lp4318
I909
atp4319
s(I7
I45
tp4320
(I4
(lp4321
I959
atp4322
s(I2
I60
tp4323
(I4
(lp4324
I744
atp4325
s(I0
I84
tp4326
(I4
(lp4327
I644
atp4328
s(I3
I33
tp4329
(I4
(lp4330
I778
atp4331
s(I6
I30
tp4332
(I4
(lp4333
I883
atp4334
s(I4
I58
tp4335
(I4
(lp4336
I830
atp4337
s(I2
I86
tp4338
(I4
(lp4339
I530
atp4340
s(I0
I74
tp4341
(I4
(lp4342
I654
atp4343
s(I5
I59
tp4344
(I4
(lp4345
I324
atp4346
s(I9
I56
tp4347
(I4
(lp4348
I296
atp4349
s(I6
I48
tp4350
(I4
(lp4351
I865
atp4352
s(I3
I78
tp4353
(I4
(lp4354
I447
atp4355
s(I4
I64
tp4356
(I4
(lp4357
I824
atp4358
s(I1
I66
tp4359
(I4
(lp4360
I735
atp4361
s(I2
I112
tp4362
(I4
(lp4363
I504
atp4364
s(I8
I3
tp4365
(I4
(lp4366
I236
atp4367
s(I0
I96
tp4368
(I4
(lp4369
I632
atp4370
s(I9
I2
tp4371
(I4
(lp4372
I242
atp4373
s(I0
I93
tp4374
(I4
(lp4375
I635
atp4376
s(I5
I76
tp4377
(I4
(lp4378
I341
atp4379
s(I3
I84
tp4380
(I4
(lp4381
I453
atp4382
s(I4
I110
tp4383
(I4
(lp4384
I402
atp4385
s(I1
I100
tp4386
(I4
(lp4387
I581
atp4388
s(I2
I106
tp4389
(I4
(lp4390
I510
atp4391
s(I0
I31
tp4392
(I4
(lp4393
I697
atp4394
s(I5
I86
tp4395
(I4
(lp4396
I351
atp4397
s(I3
I122
tp4398
(I4
(lp4399
I491
atp4400
s(I4
I116
tp4401
(I4
(lp4402
I396
atp4403
s(I1
I30
tp4404
(I4
(lp4405
I699
atp4406
s(I0
I53
tp4407
(I4
(lp4408
I675
atp4409
s(I5
I112
tp4410
(I4
(lp4411
I377
atp4412
s(I1
I48
tp4413
(I4
(lp4414
I717
atp4415
s(I2
I55
tp4416
(I4
(lp4417
I749
atp4418
s(I0
I43
tp4419
(I4
(lp4420
I685
atp4421
s(I0
I64
tp4422
(I4
(lp4423
I664
atp4424
s(I3
I38
tp4425
(I4
(lp4426
I783
atp4427
s(I1
I42
tp4428
(I4
(lp4429
I711
atp4430
s(I6
I17
tp4431
(I4
(lp4432
I896
atp4433
s(I2
I81
tp4434
(I4
(lp4435
I535
atp4436
s(I8
I36
tp4437
(I4
(lp4438
I203
atp4439
s(I0
I65
tp4440
(I4
(lp4441
I663
atp4442
s(I5
I36
tp4443
(I4
(lp4444
I301
atp4445
s(I4
I70
tp4446
(I4
(lp4447
I818
atp4448
s(I9
I33
tp4449
(I4
(lp4450
I273
atp4451
s(I6
I43
tp4452
(I4
(lp4453
I870
atp4454
s(I4
I79
tp4455
(I4
(lp4456
I433
atp4457
s(I1
I91
tp4458
(I4
(lp4459
I572
atp4460
s(I2
I75
tp4461
(I4
(lp4462
I541
atp4463
s(I8
I10
tp4464
(I4
(lp4465
I229
atp4466
s(I0
I103
tp4467
(I4
(lp4468
I625
atp4469
s(I9
I11
tp4470
(I4
(lp4471
I251
atp4472
s(I3
I93
tp4473
(I4
(lp4474
I462
atp4475
s(I4
I85
tp4476
(I4
(lp4477
I427
atp4478
s(I2
I101
tp4479
(I4
(lp4480
I515
atp4481
s(I8
I16
tp4482
(I4
(lp4483
I223
atp4484
s(I0
I115
tp4485
(I4
(lp4486
I613
atp4487
s(I5
I95
tp4488
(I4
(lp4489
I360
atp4490
s(I3
I99
tp4491
(I4
(lp4492
I468
atp4493
s(I4
I115
tp4494
(I4
(lp4495
I397
atp4496
s(I5
I121
tp4497
(I4
(lp4498
I386
atp4499
s(I0
I34
tp4500
(I4
(lp4501
I694
atp4502
s(I3
I47
tp4503
(I4
(lp4504
I792
atp4505
s(I1
I35
tp4506
(I4
(lp4507
I704
atp4508
s(I6
I8
tp4509
(I4
(lp4510
I905
atp4511
s(I4
I40
tp4512
(I4
(lp4513
I848
atp4514
s(I2
I40
tp4515
(I4
(lp4516
I764
atp4517
s(I8
I43
tp4518
(I4
(lp4519
I196
atp4520
s(I0
I88
tp4521
(I4
(lp4522
I640
atp4523
s(I5
I45
tp4524
(I4
(lp4525
I310
atp4526
s(I7
I2
tp4527
(I4
(lp4528
I916
atp4529
s(I3
I53
tp4530
(I4
(lp4531
I798
atp4532
s(I9
I42
tp4533
(I4
(lp4534
I282
atp4535
s(I6
I34
tp4536
(I4
(lp4537
I879
atp4538
s(I4
I54
tp4539
(I4
(lp4540
I834
atp4541
s(I1
I92
tp4542
(I4
(lp4543
I573
atp4544
s(I2
I66
tp4545
(I4
(lp4546
I738
atp4547
s(I8
I49
tp4548
(I4
(lp4549
I190
atp4550
s(I7
I43
tp4551
(I4
(lp4552
I957
atp4553
s(I5
I55
tp4554
(I4
(lp4555
I320
atp4556
s(I9
I12
tp4557
(I4
(lp4558
I252
atp4559
s(I3
I66
tp4560
(I4
(lp4561
I811
atp4562
s(I4
I92
tp4563
(I4
(lp4564
I420
atp4565
s(I1
I118
tp4566
(I4
(lp4567
I599
atp4568
s(I8
I23
tp4569
(I4
(lp4570
I216
atp4571
s(I9
I22
tp4572
(I4
(lp4573
I262
atp4574
s(I7
I14
tp4575
(I4
(lp4576
I928
atp4577
s(I5
I88
tp4578
(I4
(lp4579
I353
atp4580
s(I3
I104
tp4581
(I4
(lp4582
I473
atp4583
s(I4
I122
tp4584
(I4
(lp4585
I390
atp4586
s(I1
I104
tp4587
(I4
(lp4588
I585
atp4589
s(I5
I98
tp4590
(I4
(lp4591
I363
atp4592
s(I4
I84
tp4593
(I4
(lp4594
I428
atp4595
s(I0
I57
tp4596
(I4
(lp4597
I671
atp4598
s(I1
I36
tp4599
(I4
(lp4600
I705
atp4601
s(I6
I3
tp4602
(I4
(lp4603
I910
atp4604
s(I0
I100
tp4605
(I4
(lp4606
I628
atp4607
s(I2
I35
tp4608
(I4
(lp4609
I769
atp4610
s(I0
I95
tp4611
(I4
(lp4612
I633
atp4613
s(I0
I78
tp4614
(I4
(lp4615
I650
atp4616
s(I3
I58
tp4617
(I4
(lp4618
I803
atp4619
s(I6
I37
tp4620
(I4
(lp4621
I876
atp4622
s(I4
I61
tp4623
(I4
(lp4624
I827
atp4625
s(I1
I85
tp4626
(I4
(lp4627
I566
atp4628
s(I2
I93
tp4629
(I4
(lp4630
I523
atp4631
s(I8
I56
tp4632
(I4
(lp4633
I183
atp4634
s(I0
I117
tp4635
(I4
(lp4636
I611
atp4637
s(I5
I48
tp4638
(I4
(lp4639
I313
atp4640
s(I9
I53
tp4641
(I4
(lp4642
I293
atp4643
s(I3
I75
tp4644
(I4
(lp4645
I444
atp4646
s(I4
I91
tp4647
(I4
(lp4648
I421
atp4649
s(I1
I79
tp4650
(I4
(lp4651
I560
atp4652
s(I2
I119
tp4653
(I4
(lp4654
I497
atp4655
s(I8
I30
tp4656
(I4
(lp4657
I209
atp4658
s(I0
I107
tp4659
(I4
(lp4660
I621
atp4661
s(I9
I31
tp4662
(I4
(lp4663
I271
atp4664
s(I5
I65
tp4665
(I4
(lp4666
I330
atp4667
s(I3
I81
tp4668
(I4
(lp4669
I450
atp4670
s(I4
I97
tp4671
(I4
(lp4672
I415
atp4673
s(I1
I97
tp4674
(I4
(lp4675
I578
atp4676
s(I7
I36
tp4677
(I4
(lp4678
I950
atp4679
s(I5
I107
tp4680
(I4
(lp4681
I372
atp4682
s(I3
I119
tp4683
(I4
(lp4684
I488
atp4685
s(I4
I76
tp4686
(I4
(lp4687
I436
atp4688
s(I5
I117
tp4689
(I4
(lp4690
I382
atp4691
s(I1
I61
tp4692
(I4
(lp4693
I730
atp4694
s(I2
I58
tp4695
(I4
(lp4696
I746
atp4697
ssb(dp4698
I0
(I17
I9
tp4699
sI1
(I16
I9
tp4700
sI2
(I16
I10
tp4701
sI3
(I16
I11
tp4702
sI4
(I17
I11
tp4703
sI5
(I17
I10
tp4704
sI6
(I14
I4
tp4705
sI7
(I13
I4
tp4706
sI8
(I15
I5
tp4707
sI9
(I14
I5
tp4708
stp4709
.